(lp0
Vpours
p1
aVdark
p2
aVreddish
p3
aVbrown
p4
aVcreamy
p5
aVbeige
p6
aVhead
p7
aVaroma
p8
aVnotes
p9
aVroasted
p10
aVmalts
p11
aVchocolate
p12
aVtaste
p13
aVrather
p14
aVsimilar
p15
aVmalts
p16
aVchocolate
p17
aVhint
p18
aVliquorice
p19
aVfinishes
p20
aVmoderately
p21
aVcrispy
p22
aVfloral
p23
aVnotes
p24
aVsmooth
p25
aVmouthfeel
p26
aVslightly
p27
aVwatery
p28
aV500ml
p29
aVbb25.08.17
p30
aVtap
p31
aVpours
p32
aVdark
p33
aVbrown
p34
aVthick
p35
aVcreamy
p36
aVoff-white
p37
aVhead
p38
aVgood
p39
aVlacing
p40
aVslight
p41
aVaroma
p42
aVmalts
p43
aVtoffee
p44
aVmalty
p45
aVtaste
p46
aVcaramel
p47
aVslightly
p48
aVsweet
p49
aVsmooth
p50
aVfinish
p51
aVmedium
p52
aVbody
p53
aVcarbonation
p54
aVroasted
p55
aVmalts
p56
aVhints
p57
aVcoffee
p58
aVpitch
p59
aVblack
p60
aVdark
p61
aVruby/brown
p62
aVreflections
p63
aVcreamy
p64
aVrocky
p65
aVbeige
p66
aVhead
p67
aVtaste
p68
aVsimilar
p69
aVaroma
p70
aVquite
p71
aVgood
p72
aVperfect
p73
aVclassic
p74
aVirish
p75
aVpub
p76
aVde
p77
aVtemple
p78
aVbar
p79
aVpub..
p80
aVmaar
p81
aVook
p82
aVal
p83
aVvan
p84
aVheineken
p85
aVireland..
p86
aVruikt
p87
aVvooral
p88
aVnaar
p89
aVde
p90
aVhot
p91
aVchocolate
p92
aVvan
p93
aVsuus
p94
aVverder
p95
aVweer
p96
aVprima
p97
aVguinness
p98
aVachtig
p99
aVtasted
p100
aVtap
p101
aVseveral
p102
aVtimes
p103
aV3
p104
aVmonths
p105
aVstay
p106
aVcork
p107
aVback
p108
aVhappy
p109
aVdays
p110
aVdrinking
p111
aVirish
p112
aVbeer
p113
aVpartying
p114
aVirish
p115
aVpeople
p116
aVone
p117
aVmust
p118
aVnext
p119
aVone
p120
aVplease
p121
aVblack
p122
aVcreamy
p123
aVwhite
p124
aVhead
p125
aVroast
p126
aVmilk
p127
aVchocolate
p128
aVcoffee
p129
aVsmooth
p130
aVfloral
p131
aVnutty
p132
aVashtray
p133
aVlight
p134
aVacidic
p135
aVfinish
p136
aVoverall
p137
aVgood
p138
aVguinness
p139
aVpours
p140
aVblack
p141
aVcolour
p142
aVtaste
p143
aVroast
p144
aVmalts
p145
aVchocolate
p146
aVliqourice
p147
aVpalate
p148
aVdraught
p149
aVtom
p150
aVbarry
p151
aValmost
p152
aVblack
p153
aVcreamy
p154
aVoff-white
p155
aVhead
p156
aVroasty
p157
aVmalt
p158
aVcoffee
p159
aVaroma
p160
aVsmooth
p161
aVbitter
p162
aVstart
p163
aVfull
p164
aVmalty
p165
aVfinish
p166
aVgood
p167
aVmacro
p168
aVbeer
p169
aV0.5l
p170
aVblack
p171
aVbody
p172
aVcreamy
p173
aVlong
p174
aVlasting
p175
aVbeige
p176
aVhead
p177
aVcascade
p178
aVeffect
p179
aVaroma
p180
aVchocolate
p181
aVcoffee
p182
aVberries
p183
aVtaste
p184
aVcoffee
p185
aVchocolate
p186
aVcherries
p187
aVberries
p188
aVbit
p189
aVfloral
p190
aVhop
p191
aVbitterness
p192
aVlight-medium
p193
aVbodied
p194
aVcreamy
p195
aVtexture
p196
aVnice
p197
aVdense
p198
aVcreamy
p199
aVfoam
p200
aVaroma
p201
aVwell
p202
aVhidden
p203
aVfine
p204
aVfoam
p205
aVlittle
p206
aVhard
p207
aVroasted
p208
aVmalt
p209
aVlight
p210
aVnotes
p211
aVlicorice
p212
aVglimpsed
p213
aVtaste
p214
aVinitially
p215
aVlittle
p216
aVwater
p217
aVdistinct
p218
aVflavor
p219
aVnotes
p220
aVmocha
p221
aVgood
p222
aVenglish
p223
aVlicorice
p224
aVcomfortable
p225
aVhop
p226
aVbitterness
p227
aVdry
p228
aVaftertaste
p229
aVincredibly
p230
aVdelicious
p231
aVstout
p232
aVpours
p233
aVdark
p234
aVreddish
p235
aVbrown
p236
aVcreamy
p237
aVbeige
p238
aVhead
p239
aVaroma
p240
aVnotes
p241
aVroasted
p242
aVmalts
p243
aVchocolate
p244
aVtaste
p245
aVrather
p246
aVsimilar
p247
aVmalts
p248
aVchocolate
p249
aVhint
p250
aVliquorice
p251
aVfinishes
p252
aVmoderately
p253
aVcrispy
p254
aVfloral
p255
aVnotes
p256
aVsmooth
p257
aVmouthfeel
p258
aVslightly
p259
aVwatery
p260
aV500ml
p261
aVbb25.08.17
p262
aVtap
p263
aVpours
p264
aVdark
p265
aVbrown
p266
aVthick
p267
aVcreamy
p268
aVoff-white
p269
aVhead
p270
aVgood
p271
aVlacing
p272
aVslight
p273
aVaroma
p274
aVmalts
p275
aVtoffee
p276
aVmalty
p277
aVtaste
p278
aVcaramel
p279
aVslightly
p280
aVsweet
p281
aVsmooth
p282
aVfinish
p283
aVmedium
p284
aVbody
p285
aVcarbonation
p286
aVroasted
p287
aVmalts
p288
aVhints
p289
aVcoffee
p290
aVpitch
p291
aVblack
p292
aVdark
p293
aVruby/brown
p294
aVreflections
p295
aVcreamy
p296
aVrocky
p297
aVbeige
p298
aVhead
p299
aVtaste
p300
aVsimilar
p301
aVaroma
p302
aVquite
p303
aVgood
p304
aVperfect
p305
aVclassic
p306
aVirish
p307
aVpub
p308
aVde
p309
aVtemple
p310
aVbar
p311
aVpub..
p312
aVmaar
p313
aVook
p314
aVal
p315
aVvan
p316
aVheineken
p317
aVireland..
p318
aVruikt
p319
aVvooral
p320
aVnaar
p321
aVde
p322
aVhot
p323
aVchocolate
p324
aVvan
p325
aVsuus
p326
aVverder
p327
aVweer
p328
aVprima
p329
aVguinness
p330
aVachtig
p331
aVtasted
p332
aVtap
p333
aVseveral
p334
aVtimes
p335
ag104
aVmonths
p336
aVstay
p337
aVcork
p338
aVback
p339
aVhappy
p340
aVdays
p341
aVdrinking
p342
aVirish
p343
aVbeer
p344
aVpartying
p345
aVirish
p346
aVpeople
p347
aVone
p348
aVmust
p349
aVnext
p350
aVone
p351
aVplease
p352
aVblack
p353
aVcreamy
p354
aVwhite
p355
aVhead
p356
aVroast
p357
aVmilk
p358
aVchocolate
p359
aVcoffee
p360
aVsmooth
p361
aVfloral
p362
aVnutty
p363
aVashtray
p364
aVlight
p365
aVacidic
p366
aVfinish
p367
aVoverall
p368
aVgood
p369
aVguinness
p370
aVpours
p371
aVblack
p372
aVcolour
p373
aVtaste
p374
aVroast
p375
aVmalts
p376
aVchocolate
p377
aVliqourice
p378
aVpalate
p379
aVdraught
p380
aVtom
p381
aVbarry
p382
aValmost
p383
aVblack
p384
aVcreamy
p385
aVoff-white
p386
aVhead
p387
aVroasty
p388
aVmalt
p389
aVcoffee
p390
aVaroma
p391
aVsmooth
p392
aVbitter
p393
aVstart
p394
aVfull
p395
aVmalty
p396
aVfinish
p397
aVgood
p398
aVmacro
p399
aVbeer
p400
aV0.5l
p401
aVblack
p402
aVbody
p403
aVcreamy
p404
aVlong
p405
aVlasting
p406
aVbeige
p407
aVhead
p408
aVcascade
p409
aVeffect
p410
aVaroma
p411
aVchocolate
p412
aVcoffee
p413
aVberries
p414
aVtaste
p415
aVcoffee
p416
aVchocolate
p417
aVcherries
p418
aVberries
p419
aVbit
p420
aVfloral
p421
aVhop
p422
aVbitterness
p423
aVlight-medium
p424
aVbodied
p425
aVcreamy
p426
aVtexture
p427
aVnice
p428
aVdense
p429
aVcreamy
p430
aVfoam
p431
aVaroma
p432
aVwell
p433
aVhidden
p434
aVfine
p435
aVfoam
p436
aVlittle
p437
aVhard
p438
aVroasted
p439
aVmalt
p440
aVlight
p441
aVnotes
p442
aVlicorice
p443
aVglimpsed
p444
aVtaste
p445
aVinitially
p446
aVlittle
p447
aVwater
p448
aVdistinct
p449
aVflavor
p450
aVnotes
p451
aVmocha
p452
aVgood
p453
aVenglish
p454
aVlicorice
p455
aVcomfortable
p456
aVhop
p457
aVbitterness
p458
aVdry
p459
aVaftertaste
p460
aVincredibly
p461
aVdelicious
p462
aVstout
p463
aVpours
p464
aVdark
p465
aVreddish
p466
aVbrown
p467
aVcreamy
p468
aVbeige
p469
aVhead
p470
aVaroma
p471
aVnotes
p472
aVroasted
p473
aVmalts
p474
aVchocolate
p475
aVtaste
p476
aVrather
p477
aVsimilar
p478
aVmalts
p479
aVchocolate
p480
aVhint
p481
aVliquorice
p482
aVfinishes
p483
aVmoderately
p484
aVcrispy
p485
aVfloral
p486
aVnotes
p487
aVsmooth
p488
aVmouthfeel
p489
aVslightly
p490
aVwatery
p491
aV500ml
p492
aVbb25.08.17
p493
aVtap
p494
aVpours
p495
aVdark
p496
aVbrown
p497
aVthick
p498
aVcreamy
p499
aVoff-white
p500
aVhead
p501
aVgood
p502
aVlacing
p503
aVslight
p504
aVaroma
p505
aVmalts
p506
aVtoffee
p507
aVmalty
p508
aVtaste
p509
aVcaramel
p510
aVslightly
p511
aVsweet
p512
aVsmooth
p513
aVfinish
p514
aVmedium
p515
aVbody
p516
aVcarbonation
p517
aVroasted
p518
aVmalts
p519
aVhints
p520
aVcoffee
p521
aVpitch
p522
aVblack
p523
aVdark
p524
aVruby/brown
p525
aVreflections
p526
aVcreamy
p527
aVrocky
p528
aVbeige
p529
aVhead
p530
aVtaste
p531
aVsimilar
p532
aVaroma
p533
aVquite
p534
aVgood
p535
aVperfect
p536
aVclassic
p537
aVirish
p538
aVpub
p539
aVde
p540
aVtemple
p541
aVbar
p542
aVpub..
p543
aVmaar
p544
aVook
p545
aVal
p546
aVvan
p547
aVheineken
p548
aVireland..
p549
aVruikt
p550
aVvooral
p551
aVnaar
p552
aVde
p553
aVhot
p554
aVchocolate
p555
aVvan
p556
aVsuus
p557
aVverder
p558
aVweer
p559
aVprima
p560
aVguinness
p561
aVachtig
p562
aVtasted
p563
aVtap
p564
aVseveral
p565
aVtimes
p566
ag104
aVmonths
p567
aVstay
p568
aVcork
p569
aVback
p570
aVhappy
p571
aVdays
p572
aVdrinking
p573
aVirish
p574
aVbeer
p575
aVpartying
p576
aVirish
p577
aVpeople
p578
aVone
p579
aVmust
p580
aVnext
p581
aVone
p582
aVplease
p583
aVblack
p584
aVcreamy
p585
aVwhite
p586
aVhead
p587
aVroast
p588
aVmilk
p589
aVchocolate
p590
aVcoffee
p591
aVsmooth
p592
aVfloral
p593
aVnutty
p594
aVashtray
p595
aVlight
p596
aVacidic
p597
aVfinish
p598
aVoverall
p599
aVgood
p600
aVguinness
p601
aVpours
p602
aVblack
p603
aVcolour
p604
aVtaste
p605
aVroast
p606
aVmalts
p607
aVchocolate
p608
aVliqourice
p609
aVpalate
p610
aVdraught
p611
aVtom
p612
aVbarry
p613
aValmost
p614
aVblack
p615
aVcreamy
p616
aVoff-white
p617
aVhead
p618
aVroasty
p619
aVmalt
p620
aVcoffee
p621
aVaroma
p622
aVsmooth
p623
aVbitter
p624
aVstart
p625
aVfull
p626
aVmalty
p627
aVfinish
p628
aVgood
p629
aVmacro
p630
aVbeer
p631
aV0.5l
p632
aVblack
p633
aVbody
p634
aVcreamy
p635
aVlong
p636
aVlasting
p637
aVbeige
p638
aVhead
p639
aVcascade
p640
aVeffect
p641
aVaroma
p642
aVchocolate
p643
aVcoffee
p644
aVberries
p645
aVtaste
p646
aVcoffee
p647
aVchocolate
p648
aVcherries
p649
aVberries
p650
aVbit
p651
aVfloral
p652
aVhop
p653
aVbitterness
p654
aVlight-medium
p655
aVbodied
p656
aVcreamy
p657
aVtexture
p658
aVnice
p659
aVdense
p660
aVcreamy
p661
aVfoam
p662
aVaroma
p663
aVwell
p664
aVhidden
p665
aVfine
p666
aVfoam
p667
aVlittle
p668
aVhard
p669
aVroasted
p670
aVmalt
p671
aVlight
p672
aVnotes
p673
aVlicorice
p674
aVglimpsed
p675
aVtaste
p676
aVinitially
p677
aVlittle
p678
aVwater
p679
aVdistinct
p680
aVflavor
p681
aVnotes
p682
aVmocha
p683
aVgood
p684
aVenglish
p685
aVlicorice
p686
aVcomfortable
p687
aVhop
p688
aVbitterness
p689
aVdry
p690
aVaftertaste
p691
aVincredibly
p692
aVdelicious
p693
aVstout
p694
aVpours
p695
aVdark
p696
aVreddish
p697
aVbrown
p698
aVcreamy
p699
aVbeige
p700
aVhead
p701
aVaroma
p702
aVnotes
p703
aVroasted
p704
aVmalts
p705
aVchocolate
p706
aVtaste
p707
aVrather
p708
aVsimilar
p709
aVmalts
p710
aVchocolate
p711
aVhint
p712
aVliquorice
p713
aVfinishes
p714
aVmoderately
p715
aVcrispy
p716
aVfloral
p717
aVnotes
p718
aVsmooth
p719
aVmouthfeel
p720
aVslightly
p721
aVwatery
p722
aV500ml
p723
aVbb25.08.17
p724
aVtap
p725
aVpours
p726
aVdark
p727
aVbrown
p728
aVthick
p729
aVcreamy
p730
aVoff-white
p731
aVhead
p732
aVgood
p733
aVlacing
p734
aVslight
p735
aVaroma
p736
aVmalts
p737
aVtoffee
p738
aVmalty
p739
aVtaste
p740
aVcaramel
p741
aVslightly
p742
aVsweet
p743
aVsmooth
p744
aVfinish
p745
aVmedium
p746
aVbody
p747
aVcarbonation
p748
aVroasted
p749
aVmalts
p750
aVhints
p751
aVcoffee
p752
aVpitch
p753
aVblack
p754
aVdark
p755
aVruby/brown
p756
aVreflections
p757
aVcreamy
p758
aVrocky
p759
aVbeige
p760
aVhead
p761
aVtaste
p762
aVsimilar
p763
aVaroma
p764
aVquite
p765
aVgood
p766
aVperfect
p767
aVclassic
p768
aVirish
p769
aVpub
p770
aVde
p771
aVtemple
p772
aVbar
p773
aVpub..
p774
aVmaar
p775
aVook
p776
aVal
p777
aVvan
p778
aVheineken
p779
aVireland..
p780
aVruikt
p781
aVvooral
p782
aVnaar
p783
aVde
p784
aVhot
p785
aVchocolate
p786
aVvan
p787
aVsuus
p788
aVverder
p789
aVweer
p790
aVprima
p791
aVguinness
p792
aVachtig
p793
aVtasted
p794
aVtap
p795
aVseveral
p796
aVtimes
p797
ag104
aVmonths
p798
aVstay
p799
aVcork
p800
aVback
p801
aVhappy
p802
aVdays
p803
aVdrinking
p804
aVirish
p805
aVbeer
p806
aVpartying
p807
aVirish
p808
aVpeople
p809
aVone
p810
aVmust
p811
aVnext
p812
aVone
p813
aVplease
p814
aVblack
p815
aVcreamy
p816
aVwhite
p817
aVhead
p818
aVroast
p819
aVmilk
p820
aVchocolate
p821
aVcoffee
p822
aVsmooth
p823
aVfloral
p824
aVnutty
p825
aVashtray
p826
aVlight
p827
aVacidic
p828
aVfinish
p829
aVoverall
p830
aVgood
p831
aVguinness
p832
aVpours
p833
aVblack
p834
aVcolour
p835
aVtaste
p836
aVroast
p837
aVmalts
p838
aVchocolate
p839
aVliqourice
p840
aVpalate
p841
aVdraught
p842
aVtom
p843
aVbarry
p844
aValmost
p845
aVblack
p846
aVcreamy
p847
aVoff-white
p848
aVhead
p849
aVroasty
p850
aVmalt
p851
aVcoffee
p852
aVaroma
p853
aVsmooth
p854
aVbitter
p855
aVstart
p856
aVfull
p857
aVmalty
p858
aVfinish
p859
aVgood
p860
aVmacro
p861
aVbeer
p862
aV0.5l
p863
aVblack
p864
aVbody
p865
aVcreamy
p866
aVlong
p867
aVlasting
p868
aVbeige
p869
aVhead
p870
aVcascade
p871
aVeffect
p872
aVaroma
p873
aVchocolate
p874
aVcoffee
p875
aVberries
p876
aVtaste
p877
aVcoffee
p878
aVchocolate
p879
aVcherries
p880
aVberries
p881
aVbit
p882
aVfloral
p883
aVhop
p884
aVbitterness
p885
aVlight-medium
p886
aVbodied
p887
aVcreamy
p888
aVtexture
p889
aVnice
p890
aVdense
p891
aVcreamy
p892
aVfoam
p893
aVaroma
p894
aVwell
p895
aVhidden
p896
aVfine
p897
aVfoam
p898
aVlittle
p899
aVhard
p900
aVroasted
p901
aVmalt
p902
aVlight
p903
aVnotes
p904
aVlicorice
p905
aVglimpsed
p906
aVtaste
p907
aVinitially
p908
aVlittle
p909
aVwater
p910
aVdistinct
p911
aVflavor
p912
aVnotes
p913
aVmocha
p914
aVgood
p915
aVenglish
p916
aVlicorice
p917
aVcomfortable
p918
aVhop
p919
aVbitterness
p920
aVdry
p921
aVaftertaste
p922
aVincredibly
p923
aVdelicious
p924
aVstout
p925
aVpours
p926
aVdark
p927
aVreddish
p928
aVbrown
p929
aVcreamy
p930
aVbeige
p931
aVhead
p932
aVaroma
p933
aVnotes
p934
aVroasted
p935
aVmalts
p936
aVchocolate
p937
aVtaste
p938
aVrather
p939
aVsimilar
p940
aVmalts
p941
aVchocolate
p942
aVhint
p943
aVliquorice
p944
aVfinishes
p945
aVmoderately
p946
aVcrispy
p947
aVfloral
p948
aVnotes
p949
aVsmooth
p950
aVmouthfeel
p951
aVslightly
p952
aVwatery
p953
aV500ml
p954
aVbb25.08.17
p955
aVtap
p956
aVpours
p957
aVdark
p958
aVbrown
p959
aVthick
p960
aVcreamy
p961
aVoff-white
p962
aVhead
p963
aVgood
p964
aVlacing
p965
aVslight
p966
aVaroma
p967
aVmalts
p968
aVtoffee
p969
aVmalty
p970
aVtaste
p971
aVcaramel
p972
aVslightly
p973
aVsweet
p974
aVsmooth
p975
aVfinish
p976
aVmedium
p977
aVbody
p978
aVcarbonation
p979
aVroasted
p980
aVmalts
p981
aVhints
p982
aVcoffee
p983
aVpitch
p984
aVblack
p985
aVdark
p986
aVruby/brown
p987
aVreflections
p988
aVcreamy
p989
aVrocky
p990
aVbeige
p991
aVhead
p992
aVtaste
p993
aVsimilar
p994
aVaroma
p995
aVquite
p996
aVgood
p997
aVperfect
p998
aVclassic
p999
aVirish
p1000
aVpub
p1001
aVde
p1002
aVtemple
p1003
aVbar
p1004
aVpub..
p1005
aVmaar
p1006
aVook
p1007
aVal
p1008
aVvan
p1009
aVheineken
p1010
aVireland..
p1011
aVruikt
p1012
aVvooral
p1013
aVnaar
p1014
aVde
p1015
aVhot
p1016
aVchocolate
p1017
aVvan
p1018
aVsuus
p1019
aVverder
p1020
aVweer
p1021
aVprima
p1022
aVguinness
p1023
aVachtig
p1024
aVtasted
p1025
aVtap
p1026
aVseveral
p1027
aVtimes
p1028
ag104
aVmonths
p1029
aVstay
p1030
aVcork
p1031
aVback
p1032
aVhappy
p1033
aVdays
p1034
aVdrinking
p1035
aVirish
p1036
aVbeer
p1037
aVpartying
p1038
aVirish
p1039
aVpeople
p1040
aVone
p1041
aVmust
p1042
aVnext
p1043
aVone
p1044
aVplease
p1045
aVblack
p1046
aVcreamy
p1047
aVwhite
p1048
aVhead
p1049
aVroast
p1050
aVmilk
p1051
aVchocolate
p1052
aVcoffee
p1053
aVsmooth
p1054
aVfloral
p1055
aVnutty
p1056
aVashtray
p1057
aVlight
p1058
aVacidic
p1059
aVfinish
p1060
aVoverall
p1061
aVgood
p1062
aVguinness
p1063
aVpours
p1064
aVblack
p1065
aVcolour
p1066
aVtaste
p1067
aVroast
p1068
aVmalts
p1069
aVchocolate
p1070
aVliqourice
p1071
aVpalate
p1072
aVdraught
p1073
aVtom
p1074
aVbarry
p1075
aValmost
p1076
aVblack
p1077
aVcreamy
p1078
aVoff-white
p1079
aVhead
p1080
aVroasty
p1081
aVmalt
p1082
aVcoffee
p1083
aVaroma
p1084
aVsmooth
p1085
aVbitter
p1086
aVstart
p1087
aVfull
p1088
aVmalty
p1089
aVfinish
p1090
aVgood
p1091
aVmacro
p1092
aVbeer
p1093
aV0.5l
p1094
aVblack
p1095
aVbody
p1096
aVcreamy
p1097
aVlong
p1098
aVlasting
p1099
aVbeige
p1100
aVhead
p1101
aVcascade
p1102
aVeffect
p1103
aVaroma
p1104
aVchocolate
p1105
aVcoffee
p1106
aVberries
p1107
aVtaste
p1108
aVcoffee
p1109
aVchocolate
p1110
aVcherries
p1111
aVberries
p1112
aVbit
p1113
aVfloral
p1114
aVhop
p1115
aVbitterness
p1116
aVlight-medium
p1117
aVbodied
p1118
aVcreamy
p1119
aVtexture
p1120
aVnice
p1121
aVdense
p1122
aVcreamy
p1123
aVfoam
p1124
aVaroma
p1125
aVwell
p1126
aVhidden
p1127
aVfine
p1128
aVfoam
p1129
aVlittle
p1130
aVhard
p1131
aVroasted
p1132
aVmalt
p1133
aVlight
p1134
aVnotes
p1135
aVlicorice
p1136
aVglimpsed
p1137
aVtaste
p1138
aVinitially
p1139
aVlittle
p1140
aVwater
p1141
aVdistinct
p1142
aVflavor
p1143
aVnotes
p1144
aVmocha
p1145
aVgood
p1146
aVenglish
p1147
aVlicorice
p1148
aVcomfortable
p1149
aVhop
p1150
aVbitterness
p1151
aVdry
p1152
aVaftertaste
p1153
aVincredibly
p1154
aVdelicious
p1155
aVstout
p1156
aVpours
p1157
aVdark
p1158
aVreddish
p1159
aVbrown
p1160
aVcreamy
p1161
aVbeige
p1162
aVhead
p1163
aVaroma
p1164
aVnotes
p1165
aVroasted
p1166
aVmalts
p1167
aVchocolate
p1168
aVtaste
p1169
aVrather
p1170
aVsimilar
p1171
aVmalts
p1172
aVchocolate
p1173
aVhint
p1174
aVliquorice
p1175
aVfinishes
p1176
aVmoderately
p1177
aVcrispy
p1178
aVfloral
p1179
aVnotes
p1180
aVsmooth
p1181
aVmouthfeel
p1182
aVslightly
p1183
aVwatery
p1184
aV500ml
p1185
aVbb25.08.17
p1186
aVtap
p1187
aVpours
p1188
aVdark
p1189
aVbrown
p1190
aVthick
p1191
aVcreamy
p1192
aVoff-white
p1193
aVhead
p1194
aVgood
p1195
aVlacing
p1196
aVslight
p1197
aVaroma
p1198
aVmalts
p1199
aVtoffee
p1200
aVmalty
p1201
aVtaste
p1202
aVcaramel
p1203
aVslightly
p1204
aVsweet
p1205
aVsmooth
p1206
aVfinish
p1207
aVmedium
p1208
aVbody
p1209
aVcarbonation
p1210
aVroasted
p1211
aVmalts
p1212
aVhints
p1213
aVcoffee
p1214
aVpitch
p1215
aVblack
p1216
aVdark
p1217
aVruby/brown
p1218
aVreflections
p1219
aVcreamy
p1220
aVrocky
p1221
aVbeige
p1222
aVhead
p1223
aVtaste
p1224
aVsimilar
p1225
aVaroma
p1226
aVquite
p1227
aVgood
p1228
aVperfect
p1229
aVclassic
p1230
aVirish
p1231
aVpub
p1232
aVde
p1233
aVtemple
p1234
aVbar
p1235
aVpub..
p1236
aVmaar
p1237
aVook
p1238
aVal
p1239
aVvan
p1240
aVheineken
p1241
aVireland..
p1242
aVruikt
p1243
aVvooral
p1244
aVnaar
p1245
aVde
p1246
aVhot
p1247
aVchocolate
p1248
aVvan
p1249
aVsuus
p1250
aVverder
p1251
aVweer
p1252
aVprima
p1253
aVguinness
p1254
aVachtig
p1255
aVtasted
p1256
aVtap
p1257
aVseveral
p1258
aVtimes
p1259
ag104
aVmonths
p1260
aVstay
p1261
aVcork
p1262
aVback
p1263
aVhappy
p1264
aVdays
p1265
aVdrinking
p1266
aVirish
p1267
aVbeer
p1268
aVpartying
p1269
aVirish
p1270
aVpeople
p1271
aVone
p1272
aVmust
p1273
aVnext
p1274
aVone
p1275
aVplease
p1276
aVblack
p1277
aVcreamy
p1278
aVwhite
p1279
aVhead
p1280
aVroast
p1281
aVmilk
p1282
aVchocolate
p1283
aVcoffee
p1284
aVsmooth
p1285
aVfloral
p1286
aVnutty
p1287
aVashtray
p1288
aVlight
p1289
aVacidic
p1290
aVfinish
p1291
aVoverall
p1292
aVgood
p1293
aVguinness
p1294
aVpours
p1295
aVblack
p1296
aVcolour
p1297
aVtaste
p1298
aVroast
p1299
aVmalts
p1300
aVchocolate
p1301
aVliqourice
p1302
aVpalate
p1303
aVdraught
p1304
aVtom
p1305
aVbarry
p1306
aValmost
p1307
aVblack
p1308
aVcreamy
p1309
aVoff-white
p1310
aVhead
p1311
aVroasty
p1312
aVmalt
p1313
aVcoffee
p1314
aVaroma
p1315
aVsmooth
p1316
aVbitter
p1317
aVstart
p1318
aVfull
p1319
aVmalty
p1320
aVfinish
p1321
aVgood
p1322
aVmacro
p1323
aVbeer
p1324
aV0.5l
p1325
aVblack
p1326
aVbody
p1327
aVcreamy
p1328
aVlong
p1329
aVlasting
p1330
aVbeige
p1331
aVhead
p1332
aVcascade
p1333
aVeffect
p1334
aVaroma
p1335
aVchocolate
p1336
aVcoffee
p1337
aVberries
p1338
aVtaste
p1339
aVcoffee
p1340
aVchocolate
p1341
aVcherries
p1342
aVberries
p1343
aVbit
p1344
aVfloral
p1345
aVhop
p1346
aVbitterness
p1347
aVlight-medium
p1348
aVbodied
p1349
aVcreamy
p1350
aVtexture
p1351
aVnice
p1352
aVdense
p1353
aVcreamy
p1354
aVfoam
p1355
aVaroma
p1356
aVwell
p1357
aVhidden
p1358
aVfine
p1359
aVfoam
p1360
aVlittle
p1361
aVhard
p1362
aVroasted
p1363
aVmalt
p1364
aVlight
p1365
aVnotes
p1366
aVlicorice
p1367
aVglimpsed
p1368
aVtaste
p1369
aVinitially
p1370
aVlittle
p1371
aVwater
p1372
aVdistinct
p1373
aVflavor
p1374
aVnotes
p1375
aVmocha
p1376
aVgood
p1377
aVenglish
p1378
aVlicorice
p1379
aVcomfortable
p1380
aVhop
p1381
aVbitterness
p1382
aVdry
p1383
aVaftertaste
p1384
aVincredibly
p1385
aVdelicious
p1386
aVstout
p1387
aVpours
p1388
aVdark
p1389
aVreddish
p1390
aVbrown
p1391
aVcreamy
p1392
aVbeige
p1393
aVhead
p1394
aVaroma
p1395
aVnotes
p1396
aVroasted
p1397
aVmalts
p1398
aVchocolate
p1399
aVtaste
p1400
aVrather
p1401
aVsimilar
p1402
aVmalts
p1403
aVchocolate
p1404
aVhint
p1405
aVliquorice
p1406
aVfinishes
p1407
aVmoderately
p1408
aVcrispy
p1409
aVfloral
p1410
aVnotes
p1411
aVsmooth
p1412
aVmouthfeel
p1413
aVslightly
p1414
aVwatery
p1415
aV500ml
p1416
aVbb25.08.17
p1417
aVtap
p1418
aVpours
p1419
aVdark
p1420
aVbrown
p1421
aVthick
p1422
aVcreamy
p1423
aVoff-white
p1424
aVhead
p1425
aVgood
p1426
aVlacing
p1427
aVslight
p1428
aVaroma
p1429
aVmalts
p1430
aVtoffee
p1431
aVmalty
p1432
aVtaste
p1433
aVcaramel
p1434
aVslightly
p1435
aVsweet
p1436
aVsmooth
p1437
aVfinish
p1438
aVmedium
p1439
aVbody
p1440
aVcarbonation
p1441
aVroasted
p1442
aVmalts
p1443
aVhints
p1444
aVcoffee
p1445
aVpitch
p1446
aVblack
p1447
aVdark
p1448
aVruby/brown
p1449
aVreflections
p1450
aVcreamy
p1451
aVrocky
p1452
aVbeige
p1453
aVhead
p1454
aVtaste
p1455
aVsimilar
p1456
aVaroma
p1457
aVquite
p1458
aVgood
p1459
aVperfect
p1460
aVclassic
p1461
aVirish
p1462
aVpub
p1463
aVde
p1464
aVtemple
p1465
aVbar
p1466
aVpub..
p1467
aVmaar
p1468
aVook
p1469
aVal
p1470
aVvan
p1471
aVheineken
p1472
aVireland..
p1473
aVruikt
p1474
aVvooral
p1475
aVnaar
p1476
aVde
p1477
aVhot
p1478
aVchocolate
p1479
aVvan
p1480
aVsuus
p1481
aVverder
p1482
aVweer
p1483
aVprima
p1484
aVguinness
p1485
aVachtig
p1486
aVtasted
p1487
aVtap
p1488
aVseveral
p1489
aVtimes
p1490
ag104
aVmonths
p1491
aVstay
p1492
aVcork
p1493
aVback
p1494
aVhappy
p1495
aVdays
p1496
aVdrinking
p1497
aVirish
p1498
aVbeer
p1499
aVpartying
p1500
aVirish
p1501
aVpeople
p1502
aVone
p1503
aVmust
p1504
aVnext
p1505
aVone
p1506
aVplease
p1507
aVblack
p1508
aVcreamy
p1509
aVwhite
p1510
aVhead
p1511
aVroast
p1512
aVmilk
p1513
aVchocolate
p1514
aVcoffee
p1515
aVsmooth
p1516
aVfloral
p1517
aVnutty
p1518
aVashtray
p1519
aVlight
p1520
aVacidic
p1521
aVfinish
p1522
aVoverall
p1523
aVgood
p1524
aVguinness
p1525
aVpours
p1526
aVblack
p1527
aVcolour
p1528
aVtaste
p1529
aVroast
p1530
aVmalts
p1531
aVchocolate
p1532
aVliqourice
p1533
aVpalate
p1534
aVdraught
p1535
aVtom
p1536
aVbarry
p1537
aValmost
p1538
aVblack
p1539
aVcreamy
p1540
aVoff-white
p1541
aVhead
p1542
aVroasty
p1543
aVmalt
p1544
aVcoffee
p1545
aVaroma
p1546
aVsmooth
p1547
aVbitter
p1548
aVstart
p1549
aVfull
p1550
aVmalty
p1551
aVfinish
p1552
aVgood
p1553
aVmacro
p1554
aVbeer
p1555
aV0.5l
p1556
aVblack
p1557
aVbody
p1558
aVcreamy
p1559
aVlong
p1560
aVlasting
p1561
aVbeige
p1562
aVhead
p1563
aVcascade
p1564
aVeffect
p1565
aVaroma
p1566
aVchocolate
p1567
aVcoffee
p1568
aVberries
p1569
aVtaste
p1570
aVcoffee
p1571
aVchocolate
p1572
aVcherries
p1573
aVberries
p1574
aVbit
p1575
aVfloral
p1576
aVhop
p1577
aVbitterness
p1578
aVlight-medium
p1579
aVbodied
p1580
aVcreamy
p1581
aVtexture
p1582
aVnice
p1583
aVdense
p1584
aVcreamy
p1585
aVfoam
p1586
aVaroma
p1587
aVwell
p1588
aVhidden
p1589
aVfine
p1590
aVfoam
p1591
aVlittle
p1592
aVhard
p1593
aVroasted
p1594
aVmalt
p1595
aVlight
p1596
aVnotes
p1597
aVlicorice
p1598
aVglimpsed
p1599
aVtaste
p1600
aVinitially
p1601
aVlittle
p1602
aVwater
p1603
aVdistinct
p1604
aVflavor
p1605
aVnotes
p1606
aVmocha
p1607
aVgood
p1608
aVenglish
p1609
aVlicorice
p1610
aVcomfortable
p1611
aVhop
p1612
aVbitterness
p1613
aVdry
p1614
aVaftertaste
p1615
aVincredibly
p1616
aVdelicious
p1617
aVstout
p1618
aVpours
p1619
aVdark
p1620
aVreddish
p1621
aVbrown
p1622
aVcreamy
p1623
aVbeige
p1624
aVhead
p1625
aVaroma
p1626
aVnotes
p1627
aVroasted
p1628
aVmalts
p1629
aVchocolate
p1630
aVtaste
p1631
aVrather
p1632
aVsimilar
p1633
aVmalts
p1634
aVchocolate
p1635
aVhint
p1636
aVliquorice
p1637
aVfinishes
p1638
aVmoderately
p1639
aVcrispy
p1640
aVfloral
p1641
aVnotes
p1642
aVsmooth
p1643
aVmouthfeel
p1644
aVslightly
p1645
aVwatery
p1646
aV500ml
p1647
aVbb25.08.17
p1648
aVtap
p1649
aVpours
p1650
aVdark
p1651
aVbrown
p1652
aVthick
p1653
aVcreamy
p1654
aVoff-white
p1655
aVhead
p1656
aVgood
p1657
aVlacing
p1658
aVslight
p1659
aVaroma
p1660
aVmalts
p1661
aVtoffee
p1662
aVmalty
p1663
aVtaste
p1664
aVcaramel
p1665
aVslightly
p1666
aVsweet
p1667
aVsmooth
p1668
aVfinish
p1669
aVmedium
p1670
aVbody
p1671
aVcarbonation
p1672
aVroasted
p1673
aVmalts
p1674
aVhints
p1675
aVcoffee
p1676
aVpitch
p1677
aVblack
p1678
aVdark
p1679
aVruby/brown
p1680
aVreflections
p1681
aVcreamy
p1682
aVrocky
p1683
aVbeige
p1684
aVhead
p1685
aVtaste
p1686
aVsimilar
p1687
aVaroma
p1688
aVquite
p1689
aVgood
p1690
aVperfect
p1691
aVclassic
p1692
aVirish
p1693
aVpub
p1694
aVde
p1695
aVtemple
p1696
aVbar
p1697
aVpub..
p1698
aVmaar
p1699
aVook
p1700
aVal
p1701
aVvan
p1702
aVheineken
p1703
aVireland..
p1704
aVruikt
p1705
aVvooral
p1706
aVnaar
p1707
aVde
p1708
aVhot
p1709
aVchocolate
p1710
aVvan
p1711
aVsuus
p1712
aVverder
p1713
aVweer
p1714
aVprima
p1715
aVguinness
p1716
aVachtig
p1717
aVtasted
p1718
aVtap
p1719
aVseveral
p1720
aVtimes
p1721
ag104
aVmonths
p1722
aVstay
p1723
aVcork
p1724
aVback
p1725
aVhappy
p1726
aVdays
p1727
aVdrinking
p1728
aVirish
p1729
aVbeer
p1730
aVpartying
p1731
aVirish
p1732
aVpeople
p1733
aVone
p1734
aVmust
p1735
aVnext
p1736
aVone
p1737
aVplease
p1738
aVblack
p1739
aVcreamy
p1740
aVwhite
p1741
aVhead
p1742
aVroast
p1743
aVmilk
p1744
aVchocolate
p1745
aVcoffee
p1746
aVsmooth
p1747
aVfloral
p1748
aVnutty
p1749
aVashtray
p1750
aVlight
p1751
aVacidic
p1752
aVfinish
p1753
aVoverall
p1754
aVgood
p1755
aVguinness
p1756
aVpours
p1757
aVblack
p1758
aVcolour
p1759
aVtaste
p1760
aVroast
p1761
aVmalts
p1762
aVchocolate
p1763
aVliqourice
p1764
aVpalate
p1765
aVdraught
p1766
aVtom
p1767
aVbarry
p1768
aValmost
p1769
aVblack
p1770
aVcreamy
p1771
aVoff-white
p1772
aVhead
p1773
aVroasty
p1774
aVmalt
p1775
aVcoffee
p1776
aVaroma
p1777
aVsmooth
p1778
aVbitter
p1779
aVstart
p1780
aVfull
p1781
aVmalty
p1782
aVfinish
p1783
aVgood
p1784
aVmacro
p1785
aVbeer
p1786
aV0.5l
p1787
aVblack
p1788
aVbody
p1789
aVcreamy
p1790
aVlong
p1791
aVlasting
p1792
aVbeige
p1793
aVhead
p1794
aVcascade
p1795
aVeffect
p1796
aVaroma
p1797
aVchocolate
p1798
aVcoffee
p1799
aVberries
p1800
aVtaste
p1801
aVcoffee
p1802
aVchocolate
p1803
aVcherries
p1804
aVberries
p1805
aVbit
p1806
aVfloral
p1807
aVhop
p1808
aVbitterness
p1809
aVlight-medium
p1810
aVbodied
p1811
aVcreamy
p1812
aVtexture
p1813
aVnice
p1814
aVdense
p1815
aVcreamy
p1816
aVfoam
p1817
aVaroma
p1818
aVwell
p1819
aVhidden
p1820
aVfine
p1821
aVfoam
p1822
aVlittle
p1823
aVhard
p1824
aVroasted
p1825
aVmalt
p1826
aVlight
p1827
aVnotes
p1828
aVlicorice
p1829
aVglimpsed
p1830
aVtaste
p1831
aVinitially
p1832
aVlittle
p1833
aVwater
p1834
aVdistinct
p1835
aVflavor
p1836
aVnotes
p1837
aVmocha
p1838
aVgood
p1839
aVenglish
p1840
aVlicorice
p1841
aVcomfortable
p1842
aVhop
p1843
aVbitterness
p1844
aVdry
p1845
aVaftertaste
p1846
aVincredibly
p1847
aVdelicious
p1848
aVstout
p1849
aVpours
p1850
aVdark
p1851
aVreddish
p1852
aVbrown
p1853
aVcreamy
p1854
aVbeige
p1855
aVhead
p1856
aVaroma
p1857
aVnotes
p1858
aVroasted
p1859
aVmalts
p1860
aVchocolate
p1861
aVtaste
p1862
aVrather
p1863
aVsimilar
p1864
aVmalts
p1865
aVchocolate
p1866
aVhint
p1867
aVliquorice
p1868
aVfinishes
p1869
aVmoderately
p1870
aVcrispy
p1871
aVfloral
p1872
aVnotes
p1873
aVsmooth
p1874
aVmouthfeel
p1875
aVslightly
p1876
aVwatery
p1877
aV500ml
p1878
aVbb25.08.17
p1879
aVtap
p1880
aVpours
p1881
aVdark
p1882
aVbrown
p1883
aVthick
p1884
aVcreamy
p1885
aVoff-white
p1886
aVhead
p1887
aVgood
p1888
aVlacing
p1889
aVslight
p1890
aVaroma
p1891
aVmalts
p1892
aVtoffee
p1893
aVmalty
p1894
aVtaste
p1895
aVcaramel
p1896
aVslightly
p1897
aVsweet
p1898
aVsmooth
p1899
aVfinish
p1900
aVmedium
p1901
aVbody
p1902
aVcarbonation
p1903
aVroasted
p1904
aVmalts
p1905
aVhints
p1906
aVcoffee
p1907
aVpitch
p1908
aVblack
p1909
aVdark
p1910
aVruby/brown
p1911
aVreflections
p1912
aVcreamy
p1913
aVrocky
p1914
aVbeige
p1915
aVhead
p1916
aVtaste
p1917
aVsimilar
p1918
aVaroma
p1919
aVquite
p1920
aVgood
p1921
aVperfect
p1922
aVclassic
p1923
aVirish
p1924
aVpub
p1925
aVde
p1926
aVtemple
p1927
aVbar
p1928
aVpub..
p1929
aVmaar
p1930
aVook
p1931
aVal
p1932
aVvan
p1933
aVheineken
p1934
aVireland..
p1935
aVruikt
p1936
aVvooral
p1937
aVnaar
p1938
aVde
p1939
aVhot
p1940
aVchocolate
p1941
aVvan
p1942
aVsuus
p1943
aVverder
p1944
aVweer
p1945
aVprima
p1946
aVguinness
p1947
aVachtig
p1948
aVtasted
p1949
aVtap
p1950
aVseveral
p1951
aVtimes
p1952
ag104
aVmonths
p1953
aVstay
p1954
aVcork
p1955
aVback
p1956
aVhappy
p1957
aVdays
p1958
aVdrinking
p1959
aVirish
p1960
aVbeer
p1961
aVpartying
p1962
aVirish
p1963
aVpeople
p1964
aVone
p1965
aVmust
p1966
aVnext
p1967
aVone
p1968
aVplease
p1969
aVblack
p1970
aVcreamy
p1971
aVwhite
p1972
aVhead
p1973
aVroast
p1974
aVmilk
p1975
aVchocolate
p1976
aVcoffee
p1977
aVsmooth
p1978
aVfloral
p1979
aVnutty
p1980
aVashtray
p1981
aVlight
p1982
aVacidic
p1983
aVfinish
p1984
aVoverall
p1985
aVgood
p1986
aVguinness
p1987
aVpours
p1988
aVblack
p1989
aVcolour
p1990
aVtaste
p1991
aVroast
p1992
aVmalts
p1993
aVchocolate
p1994
aVliqourice
p1995
aVpalate
p1996
aVdraught
p1997
aVtom
p1998
aVbarry
p1999
aValmost
p2000
aVblack
p2001
aVcreamy
p2002
aVoff-white
p2003
aVhead
p2004
aVroasty
p2005
aVmalt
p2006
aVcoffee
p2007
aVaroma
p2008
aVsmooth
p2009
aVbitter
p2010
aVstart
p2011
aVfull
p2012
aVmalty
p2013
aVfinish
p2014
aVgood
p2015
aVmacro
p2016
aVbeer
p2017
aV0.5l
p2018
aVblack
p2019
aVbody
p2020
aVcreamy
p2021
aVlong
p2022
aVlasting
p2023
aVbeige
p2024
aVhead
p2025
aVcascade
p2026
aVeffect
p2027
aVaroma
p2028
aVchocolate
p2029
aVcoffee
p2030
aVberries
p2031
aVtaste
p2032
aVcoffee
p2033
aVchocolate
p2034
aVcherries
p2035
aVberries
p2036
aVbit
p2037
aVfloral
p2038
aVhop
p2039
aVbitterness
p2040
aVlight-medium
p2041
aVbodied
p2042
aVcreamy
p2043
aVtexture
p2044
aVnice
p2045
aVdense
p2046
aVcreamy
p2047
aVfoam
p2048
aVaroma
p2049
aVwell
p2050
aVhidden
p2051
aVfine
p2052
aVfoam
p2053
aVlittle
p2054
aVhard
p2055
aVroasted
p2056
aVmalt
p2057
aVlight
p2058
aVnotes
p2059
aVlicorice
p2060
aVglimpsed
p2061
aVtaste
p2062
aVinitially
p2063
aVlittle
p2064
aVwater
p2065
aVdistinct
p2066
aVflavor
p2067
aVnotes
p2068
aVmocha
p2069
aVgood
p2070
aVenglish
p2071
aVlicorice
p2072
aVcomfortable
p2073
aVhop
p2074
aVbitterness
p2075
aVdry
p2076
aVaftertaste
p2077
aVincredibly
p2078
aVdelicious
p2079
aVstout
p2080
aVpours
p2081
aVdark
p2082
aVreddish
p2083
aVbrown
p2084
aVcreamy
p2085
aVbeige
p2086
aVhead
p2087
aVaroma
p2088
aVnotes
p2089
aVroasted
p2090
aVmalts
p2091
aVchocolate
p2092
aVtaste
p2093
aVrather
p2094
aVsimilar
p2095
aVmalts
p2096
aVchocolate
p2097
aVhint
p2098
aVliquorice
p2099
aVfinishes
p2100
aVmoderately
p2101
aVcrispy
p2102
aVfloral
p2103
aVnotes
p2104
aVsmooth
p2105
aVmouthfeel
p2106
aVslightly
p2107
aVwatery
p2108
aV500ml
p2109
aVbb25.08.17
p2110
aVtap
p2111
aVpours
p2112
aVdark
p2113
aVbrown
p2114
aVthick
p2115
aVcreamy
p2116
aVoff-white
p2117
aVhead
p2118
aVgood
p2119
aVlacing
p2120
aVslight
p2121
aVaroma
p2122
aVmalts
p2123
aVtoffee
p2124
aVmalty
p2125
aVtaste
p2126
aVcaramel
p2127
aVslightly
p2128
aVsweet
p2129
aVsmooth
p2130
aVfinish
p2131
aVmedium
p2132
aVbody
p2133
aVcarbonation
p2134
aVroasted
p2135
aVmalts
p2136
aVhints
p2137
aVcoffee
p2138
aVpitch
p2139
aVblack
p2140
aVdark
p2141
aVruby/brown
p2142
aVreflections
p2143
aVcreamy
p2144
aVrocky
p2145
aVbeige
p2146
aVhead
p2147
aVtaste
p2148
aVsimilar
p2149
aVaroma
p2150
aVquite
p2151
aVgood
p2152
aVperfect
p2153
aVclassic
p2154
aVirish
p2155
aVpub
p2156
aVde
p2157
aVtemple
p2158
aVbar
p2159
aVpub..
p2160
aVmaar
p2161
aVook
p2162
aVal
p2163
aVvan
p2164
aVheineken
p2165
aVireland..
p2166
aVruikt
p2167
aVvooral
p2168
aVnaar
p2169
aVde
p2170
aVhot
p2171
aVchocolate
p2172
aVvan
p2173
aVsuus
p2174
aVverder
p2175
aVweer
p2176
aVprima
p2177
aVguinness
p2178
aVachtig
p2179
aVtasted
p2180
aVtap
p2181
aVseveral
p2182
aVtimes
p2183
ag104
aVmonths
p2184
aVstay
p2185
aVcork
p2186
aVback
p2187
aVhappy
p2188
aVdays
p2189
aVdrinking
p2190
aVirish
p2191
aVbeer
p2192
aVpartying
p2193
aVirish
p2194
aVpeople
p2195
aVone
p2196
aVmust
p2197
aVnext
p2198
aVone
p2199
aVplease
p2200
aVblack
p2201
aVcreamy
p2202
aVwhite
p2203
aVhead
p2204
aVroast
p2205
aVmilk
p2206
aVchocolate
p2207
aVcoffee
p2208
aVsmooth
p2209
aVfloral
p2210
aVnutty
p2211
aVashtray
p2212
aVlight
p2213
aVacidic
p2214
aVfinish
p2215
aVoverall
p2216
aVgood
p2217
aVguinness
p2218
aVpours
p2219
aVblack
p2220
aVcolour
p2221
aVtaste
p2222
aVroast
p2223
aVmalts
p2224
aVchocolate
p2225
aVliqourice
p2226
aVpalate
p2227
aVdraught
p2228
aVtom
p2229
aVbarry
p2230
aValmost
p2231
aVblack
p2232
aVcreamy
p2233
aVoff-white
p2234
aVhead
p2235
aVroasty
p2236
aVmalt
p2237
aVcoffee
p2238
aVaroma
p2239
aVsmooth
p2240
aVbitter
p2241
aVstart
p2242
aVfull
p2243
aVmalty
p2244
aVfinish
p2245
aVgood
p2246
aVmacro
p2247
aVbeer
p2248
aV0.5l
p2249
aVblack
p2250
aVbody
p2251
aVcreamy
p2252
aVlong
p2253
aVlasting
p2254
aVbeige
p2255
aVhead
p2256
aVcascade
p2257
aVeffect
p2258
aVaroma
p2259
aVchocolate
p2260
aVcoffee
p2261
aVberries
p2262
aVtaste
p2263
aVcoffee
p2264
aVchocolate
p2265
aVcherries
p2266
aVberries
p2267
aVbit
p2268
aVfloral
p2269
aVhop
p2270
aVbitterness
p2271
aVlight-medium
p2272
aVbodied
p2273
aVcreamy
p2274
aVtexture
p2275
aVnice
p2276
aVdense
p2277
aVcreamy
p2278
aVfoam
p2279
aVaroma
p2280
aVwell
p2281
aVhidden
p2282
aVfine
p2283
aVfoam
p2284
aVlittle
p2285
aVhard
p2286
aVroasted
p2287
aVmalt
p2288
aVlight
p2289
aVnotes
p2290
aVlicorice
p2291
aVglimpsed
p2292
aVtaste
p2293
aVinitially
p2294
aVlittle
p2295
aVwater
p2296
aVdistinct
p2297
aVflavor
p2298
aVnotes
p2299
aVmocha
p2300
aVgood
p2301
aVenglish
p2302
aVlicorice
p2303
aVcomfortable
p2304
aVhop
p2305
aVbitterness
p2306
aVdry
p2307
aVaftertaste
p2308
aVincredibly
p2309
aVdelicious
p2310
aVstout
p2311
aVpours
p2312
aVdark
p2313
aVreddish
p2314
aVbrown
p2315
aVcreamy
p2316
aVbeige
p2317
aVhead
p2318
aVaroma
p2319
aVnotes
p2320
aVroasted
p2321
aVmalts
p2322
aVchocolate
p2323
aVtaste
p2324
aVrather
p2325
aVsimilar
p2326
aVmalts
p2327
aVchocolate
p2328
aVhint
p2329
aVliquorice
p2330
aVfinishes
p2331
aVmoderately
p2332
aVcrispy
p2333
aVfloral
p2334
aVnotes
p2335
aVsmooth
p2336
aVmouthfeel
p2337
aVslightly
p2338
aVwatery
p2339
aV500ml
p2340
aVbb25.08.17
p2341
aVtap
p2342
aVpours
p2343
aVdark
p2344
aVbrown
p2345
aVthick
p2346
aVcreamy
p2347
aVoff-white
p2348
aVhead
p2349
aVgood
p2350
aVlacing
p2351
aVslight
p2352
aVaroma
p2353
aVmalts
p2354
aVtoffee
p2355
aVmalty
p2356
aVtaste
p2357
aVcaramel
p2358
aVslightly
p2359
aVsweet
p2360
aVsmooth
p2361
aVfinish
p2362
aVmedium
p2363
aVbody
p2364
aVcarbonation
p2365
aVroasted
p2366
aVmalts
p2367
aVhints
p2368
aVcoffee
p2369
aVpitch
p2370
aVblack
p2371
aVdark
p2372
aVruby/brown
p2373
aVreflections
p2374
aVcreamy
p2375
aVrocky
p2376
aVbeige
p2377
aVhead
p2378
aVtaste
p2379
aVsimilar
p2380
aVaroma
p2381
aVquite
p2382
aVgood
p2383
aVperfect
p2384
aVclassic
p2385
aVirish
p2386
aVpub
p2387
aVde
p2388
aVtemple
p2389
aVbar
p2390
aVpub..
p2391
aVmaar
p2392
aVook
p2393
aVal
p2394
aVvan
p2395
aVheineken
p2396
aVireland..
p2397
aVruikt
p2398
aVvooral
p2399
aVnaar
p2400
aVde
p2401
aVhot
p2402
aVchocolate
p2403
aVvan
p2404
aVsuus
p2405
aVverder
p2406
aVweer
p2407
aVprima
p2408
aVguinness
p2409
aVachtig
p2410
aVtasted
p2411
aVtap
p2412
aVseveral
p2413
aVtimes
p2414
ag104
aVmonths
p2415
aVstay
p2416
aVcork
p2417
aVback
p2418
aVhappy
p2419
aVdays
p2420
aVdrinking
p2421
aVirish
p2422
aVbeer
p2423
aVpartying
p2424
aVirish
p2425
aVpeople
p2426
aVone
p2427
aVmust
p2428
aVnext
p2429
aVone
p2430
aVplease
p2431
aVblack
p2432
aVcreamy
p2433
aVwhite
p2434
aVhead
p2435
aVroast
p2436
aVmilk
p2437
aVchocolate
p2438
aVcoffee
p2439
aVsmooth
p2440
aVfloral
p2441
aVnutty
p2442
aVashtray
p2443
aVlight
p2444
aVacidic
p2445
aVfinish
p2446
aVoverall
p2447
aVgood
p2448
aVguinness
p2449
aVpours
p2450
aVblack
p2451
aVcolour
p2452
aVtaste
p2453
aVroast
p2454
aVmalts
p2455
aVchocolate
p2456
aVliqourice
p2457
aVpalate
p2458
aVdraught
p2459
aVtom
p2460
aVbarry
p2461
aValmost
p2462
aVblack
p2463
aVcreamy
p2464
aVoff-white
p2465
aVhead
p2466
aVroasty
p2467
aVmalt
p2468
aVcoffee
p2469
aVaroma
p2470
aVsmooth
p2471
aVbitter
p2472
aVstart
p2473
aVfull
p2474
aVmalty
p2475
aVfinish
p2476
aVgood
p2477
aVmacro
p2478
aVbeer
p2479
aV0.5l
p2480
aVblack
p2481
aVbody
p2482
aVcreamy
p2483
aVlong
p2484
aVlasting
p2485
aVbeige
p2486
aVhead
p2487
aVcascade
p2488
aVeffect
p2489
aVaroma
p2490
aVchocolate
p2491
aVcoffee
p2492
aVberries
p2493
aVtaste
p2494
aVcoffee
p2495
aVchocolate
p2496
aVcherries
p2497
aVberries
p2498
aVbit
p2499
aVfloral
p2500
aVhop
p2501
aVbitterness
p2502
aVlight-medium
p2503
aVbodied
p2504
aVcreamy
p2505
aVtexture
p2506
aVnice
p2507
aVdense
p2508
aVcreamy
p2509
aVfoam
p2510
aVaroma
p2511
aVwell
p2512
aVhidden
p2513
aVfine
p2514
aVfoam
p2515
aVlittle
p2516
aVhard
p2517
aVroasted
p2518
aVmalt
p2519
aVlight
p2520
aVnotes
p2521
aVlicorice
p2522
aVglimpsed
p2523
aVtaste
p2524
aVinitially
p2525
aVlittle
p2526
aVwater
p2527
aVdistinct
p2528
aVflavor
p2529
aVnotes
p2530
aVmocha
p2531
aVgood
p2532
aVenglish
p2533
aVlicorice
p2534
aVcomfortable
p2535
aVhop
p2536
aVbitterness
p2537
aVdry
p2538
aVaftertaste
p2539
aVincredibly
p2540
aVdelicious
p2541
aVstout
p2542
aVpours
p2543
aVdark
p2544
aVreddish
p2545
aVbrown
p2546
aVcreamy
p2547
aVbeige
p2548
aVhead
p2549
aVaroma
p2550
aVnotes
p2551
aVroasted
p2552
aVmalts
p2553
aVchocolate
p2554
aVtaste
p2555
aVrather
p2556
aVsimilar
p2557
aVmalts
p2558
aVchocolate
p2559
aVhint
p2560
aVliquorice
p2561
aVfinishes
p2562
aVmoderately
p2563
aVcrispy
p2564
aVfloral
p2565
aVnotes
p2566
aVsmooth
p2567
aVmouthfeel
p2568
aVslightly
p2569
aVwatery
p2570
aV500ml
p2571
aVbb25.08.17
p2572
aVtap
p2573
aVpours
p2574
aVdark
p2575
aVbrown
p2576
aVthick
p2577
aVcreamy
p2578
aVoff-white
p2579
aVhead
p2580
aVgood
p2581
aVlacing
p2582
aVslight
p2583
aVaroma
p2584
aVmalts
p2585
aVtoffee
p2586
aVmalty
p2587
aVtaste
p2588
aVcaramel
p2589
aVslightly
p2590
aVsweet
p2591
aVsmooth
p2592
aVfinish
p2593
aVmedium
p2594
aVbody
p2595
aVcarbonation
p2596
aVroasted
p2597
aVmalts
p2598
aVhints
p2599
aVcoffee
p2600
aVpitch
p2601
aVblack
p2602
aVdark
p2603
aVruby/brown
p2604
aVreflections
p2605
aVcreamy
p2606
aVrocky
p2607
aVbeige
p2608
aVhead
p2609
aVtaste
p2610
aVsimilar
p2611
aVaroma
p2612
aVquite
p2613
aVgood
p2614
aVperfect
p2615
aVclassic
p2616
aVirish
p2617
aVpub
p2618
aVde
p2619
aVtemple
p2620
aVbar
p2621
aVpub..
p2622
aVmaar
p2623
aVook
p2624
aVal
p2625
aVvan
p2626
aVheineken
p2627
aVireland..
p2628
aVruikt
p2629
aVvooral
p2630
aVnaar
p2631
aVde
p2632
aVhot
p2633
aVchocolate
p2634
aVvan
p2635
aVsuus
p2636
aVverder
p2637
aVweer
p2638
aVprima
p2639
aVguinness
p2640
aVachtig
p2641
aVtasted
p2642
aVtap
p2643
aVseveral
p2644
aVtimes
p2645
ag104
aVmonths
p2646
aVstay
p2647
aVcork
p2648
aVback
p2649
aVhappy
p2650
aVdays
p2651
aVdrinking
p2652
aVirish
p2653
aVbeer
p2654
aVpartying
p2655
aVirish
p2656
aVpeople
p2657
aVone
p2658
aVmust
p2659
aVnext
p2660
aVone
p2661
aVplease
p2662
aVblack
p2663
aVcreamy
p2664
aVwhite
p2665
aVhead
p2666
aVroast
p2667
aVmilk
p2668
aVchocolate
p2669
aVcoffee
p2670
aVsmooth
p2671
aVfloral
p2672
aVnutty
p2673
aVashtray
p2674
aVlight
p2675
aVacidic
p2676
aVfinish
p2677
aVoverall
p2678
aVgood
p2679
aVguinness
p2680
aVpours
p2681
aVblack
p2682
aVcolour
p2683
aVtaste
p2684
aVroast
p2685
aVmalts
p2686
aVchocolate
p2687
aVliqourice
p2688
aVpalate
p2689
aVdraught
p2690
aVtom
p2691
aVbarry
p2692
aValmost
p2693
aVblack
p2694
aVcreamy
p2695
aVoff-white
p2696
aVhead
p2697
aVroasty
p2698
aVmalt
p2699
aVcoffee
p2700
aVaroma
p2701
aVsmooth
p2702
aVbitter
p2703
aVstart
p2704
aVfull
p2705
aVmalty
p2706
aVfinish
p2707
aVgood
p2708
aVmacro
p2709
aVbeer
p2710
aV0.5l
p2711
aVblack
p2712
aVbody
p2713
aVcreamy
p2714
aVlong
p2715
aVlasting
p2716
aVbeige
p2717
aVhead
p2718
aVcascade
p2719
aVeffect
p2720
aVaroma
p2721
aVchocolate
p2722
aVcoffee
p2723
aVberries
p2724
aVtaste
p2725
aVcoffee
p2726
aVchocolate
p2727
aVcherries
p2728
aVberries
p2729
aVbit
p2730
aVfloral
p2731
aVhop
p2732
aVbitterness
p2733
aVlight-medium
p2734
aVbodied
p2735
aVcreamy
p2736
aVtexture
p2737
aVnice
p2738
aVdense
p2739
aVcreamy
p2740
aVfoam
p2741
aVaroma
p2742
aVwell
p2743
aVhidden
p2744
aVfine
p2745
aVfoam
p2746
aVlittle
p2747
aVhard
p2748
aVroasted
p2749
aVmalt
p2750
aVlight
p2751
aVnotes
p2752
aVlicorice
p2753
aVglimpsed
p2754
aVtaste
p2755
aVinitially
p2756
aVlittle
p2757
aVwater
p2758
aVdistinct
p2759
aVflavor
p2760
aVnotes
p2761
aVmocha
p2762
aVgood
p2763
aVenglish
p2764
aVlicorice
p2765
aVcomfortable
p2766
aVhop
p2767
aVbitterness
p2768
aVdry
p2769
aVaftertaste
p2770
aVincredibly
p2771
aVdelicious
p2772
aVstout
p2773
aVpours
p2774
aVdark
p2775
aVreddish
p2776
aVbrown
p2777
aVcreamy
p2778
aVbeige
p2779
aVhead
p2780
aVaroma
p2781
aVnotes
p2782
aVroasted
p2783
aVmalts
p2784
aVchocolate
p2785
aVtaste
p2786
aVrather
p2787
aVsimilar
p2788
aVmalts
p2789
aVchocolate
p2790
aVhint
p2791
aVliquorice
p2792
aVfinishes
p2793
aVmoderately
p2794
aVcrispy
p2795
aVfloral
p2796
aVnotes
p2797
aVsmooth
p2798
aVmouthfeel
p2799
aVslightly
p2800
aVwatery
p2801
aV500ml
p2802
aVbb25.08.17
p2803
aVtap
p2804
aVpours
p2805
aVdark
p2806
aVbrown
p2807
aVthick
p2808
aVcreamy
p2809
aVoff-white
p2810
aVhead
p2811
aVgood
p2812
aVlacing
p2813
aVslight
p2814
aVaroma
p2815
aVmalts
p2816
aVtoffee
p2817
aVmalty
p2818
aVtaste
p2819
aVcaramel
p2820
aVslightly
p2821
aVsweet
p2822
aVsmooth
p2823
aVfinish
p2824
aVmedium
p2825
aVbody
p2826
aVcarbonation
p2827
aVroasted
p2828
aVmalts
p2829
aVhints
p2830
aVcoffee
p2831
aVpitch
p2832
aVblack
p2833
aVdark
p2834
aVruby/brown
p2835
aVreflections
p2836
aVcreamy
p2837
aVrocky
p2838
aVbeige
p2839
aVhead
p2840
aVtaste
p2841
aVsimilar
p2842
aVaroma
p2843
aVquite
p2844
aVgood
p2845
aVperfect
p2846
aVclassic
p2847
aVirish
p2848
aVpub
p2849
aVde
p2850
aVtemple
p2851
aVbar
p2852
aVpub..
p2853
aVmaar
p2854
aVook
p2855
aVal
p2856
aVvan
p2857
aVheineken
p2858
aVireland..
p2859
aVruikt
p2860
aVvooral
p2861
aVnaar
p2862
aVde
p2863
aVhot
p2864
aVchocolate
p2865
aVvan
p2866
aVsuus
p2867
aVverder
p2868
aVweer
p2869
aVprima
p2870
aVguinness
p2871
aVachtig
p2872
aVtasted
p2873
aVtap
p2874
aVseveral
p2875
aVtimes
p2876
ag104
aVmonths
p2877
aVstay
p2878
aVcork
p2879
aVback
p2880
aVhappy
p2881
aVdays
p2882
aVdrinking
p2883
aVirish
p2884
aVbeer
p2885
aVpartying
p2886
aVirish
p2887
aVpeople
p2888
aVone
p2889
aVmust
p2890
aVnext
p2891
aVone
p2892
aVplease
p2893
aVblack
p2894
aVcreamy
p2895
aVwhite
p2896
aVhead
p2897
aVroast
p2898
aVmilk
p2899
aVchocolate
p2900
aVcoffee
p2901
aVsmooth
p2902
aVfloral
p2903
aVnutty
p2904
aVashtray
p2905
aVlight
p2906
aVacidic
p2907
aVfinish
p2908
aVoverall
p2909
aVgood
p2910
aVguinness
p2911
aVpours
p2912
aVblack
p2913
aVcolour
p2914
aVtaste
p2915
aVroast
p2916
aVmalts
p2917
aVchocolate
p2918
aVliqourice
p2919
aVpalate
p2920
aVdraught
p2921
aVtom
p2922
aVbarry
p2923
aValmost
p2924
aVblack
p2925
aVcreamy
p2926
aVoff-white
p2927
aVhead
p2928
aVroasty
p2929
aVmalt
p2930
aVcoffee
p2931
aVaroma
p2932
aVsmooth
p2933
aVbitter
p2934
aVstart
p2935
aVfull
p2936
aVmalty
p2937
aVfinish
p2938
aVgood
p2939
aVmacro
p2940
aVbeer
p2941
aV0.5l
p2942
aVblack
p2943
aVbody
p2944
aVcreamy
p2945
aVlong
p2946
aVlasting
p2947
aVbeige
p2948
aVhead
p2949
aVcascade
p2950
aVeffect
p2951
aVaroma
p2952
aVchocolate
p2953
aVcoffee
p2954
aVberries
p2955
aVtaste
p2956
aVcoffee
p2957
aVchocolate
p2958
aVcherries
p2959
aVberries
p2960
aVbit
p2961
aVfloral
p2962
aVhop
p2963
aVbitterness
p2964
aVlight-medium
p2965
aVbodied
p2966
aVcreamy
p2967
aVtexture
p2968
aVnice
p2969
aVdense
p2970
aVcreamy
p2971
aVfoam
p2972
aVaroma
p2973
aVwell
p2974
aVhidden
p2975
aVfine
p2976
aVfoam
p2977
aVlittle
p2978
aVhard
p2979
aVroasted
p2980
aVmalt
p2981
aVlight
p2982
aVnotes
p2983
aVlicorice
p2984
aVglimpsed
p2985
aVtaste
p2986
aVinitially
p2987
aVlittle
p2988
aVwater
p2989
aVdistinct
p2990
aVflavor
p2991
aVnotes
p2992
aVmocha
p2993
aVgood
p2994
aVenglish
p2995
aVlicorice
p2996
aVcomfortable
p2997
aVhop
p2998
aVbitterness
p2999
aVdry
p3000
aVaftertaste
p3001
aVincredibly
p3002
aVdelicious
p3003
aVstout
p3004
aVpours
p3005
aVdark
p3006
aVreddish
p3007
aVbrown
p3008
aVcreamy
p3009
aVbeige
p3010
aVhead
p3011
aVaroma
p3012
aVnotes
p3013
aVroasted
p3014
aVmalts
p3015
aVchocolate
p3016
aVtaste
p3017
aVrather
p3018
aVsimilar
p3019
aVmalts
p3020
aVchocolate
p3021
aVhint
p3022
aVliquorice
p3023
aVfinishes
p3024
aVmoderately
p3025
aVcrispy
p3026
aVfloral
p3027
aVnotes
p3028
aVsmooth
p3029
aVmouthfeel
p3030
aVslightly
p3031
aVwatery
p3032
aV500ml
p3033
aVbb25.08.17
p3034
aVtap
p3035
aVpours
p3036
aVdark
p3037
aVbrown
p3038
aVthick
p3039
aVcreamy
p3040
aVoff-white
p3041
aVhead
p3042
aVgood
p3043
aVlacing
p3044
aVslight
p3045
aVaroma
p3046
aVmalts
p3047
aVtoffee
p3048
aVmalty
p3049
aVtaste
p3050
aVcaramel
p3051
aVslightly
p3052
aVsweet
p3053
aVsmooth
p3054
aVfinish
p3055
aVmedium
p3056
aVbody
p3057
aVcarbonation
p3058
aVroasted
p3059
aVmalts
p3060
aVhints
p3061
aVcoffee
p3062
aVpitch
p3063
aVblack
p3064
aVdark
p3065
aVruby/brown
p3066
aVreflections
p3067
aVcreamy
p3068
aVrocky
p3069
aVbeige
p3070
aVhead
p3071
aVtaste
p3072
aVsimilar
p3073
aVaroma
p3074
aVquite
p3075
aVgood
p3076
aVperfect
p3077
aVclassic
p3078
aVirish
p3079
aVpub
p3080
aVde
p3081
aVtemple
p3082
aVbar
p3083
aVpub..
p3084
aVmaar
p3085
aVook
p3086
aVal
p3087
aVvan
p3088
aVheineken
p3089
aVireland..
p3090
aVruikt
p3091
aVvooral
p3092
aVnaar
p3093
aVde
p3094
aVhot
p3095
aVchocolate
p3096
aVvan
p3097
aVsuus
p3098
aVverder
p3099
aVweer
p3100
aVprima
p3101
aVguinness
p3102
aVachtig
p3103
aVtasted
p3104
aVtap
p3105
aVseveral
p3106
aVtimes
p3107
ag104
aVmonths
p3108
aVstay
p3109
aVcork
p3110
aVback
p3111
aVhappy
p3112
aVdays
p3113
aVdrinking
p3114
aVirish
p3115
aVbeer
p3116
aVpartying
p3117
aVirish
p3118
aVpeople
p3119
aVone
p3120
aVmust
p3121
aVnext
p3122
aVone
p3123
aVplease
p3124
aVblack
p3125
aVcreamy
p3126
aVwhite
p3127
aVhead
p3128
aVroast
p3129
aVmilk
p3130
aVchocolate
p3131
aVcoffee
p3132
aVsmooth
p3133
aVfloral
p3134
aVnutty
p3135
aVashtray
p3136
aVlight
p3137
aVacidic
p3138
aVfinish
p3139
aVoverall
p3140
aVgood
p3141
aVguinness
p3142
aVpours
p3143
aVblack
p3144
aVcolour
p3145
aVtaste
p3146
aVroast
p3147
aVmalts
p3148
aVchocolate
p3149
aVliqourice
p3150
aVpalate
p3151
aVdraught
p3152
aVtom
p3153
aVbarry
p3154
aValmost
p3155
aVblack
p3156
aVcreamy
p3157
aVoff-white
p3158
aVhead
p3159
aVroasty
p3160
aVmalt
p3161
aVcoffee
p3162
aVaroma
p3163
aVsmooth
p3164
aVbitter
p3165
aVstart
p3166
aVfull
p3167
aVmalty
p3168
aVfinish
p3169
aVgood
p3170
aVmacro
p3171
aVbeer
p3172
aV0.5l
p3173
aVblack
p3174
aVbody
p3175
aVcreamy
p3176
aVlong
p3177
aVlasting
p3178
aVbeige
p3179
aVhead
p3180
aVcascade
p3181
aVeffect
p3182
aVaroma
p3183
aVchocolate
p3184
aVcoffee
p3185
aVberries
p3186
aVtaste
p3187
aVcoffee
p3188
aVchocolate
p3189
aVcherries
p3190
aVberries
p3191
aVbit
p3192
aVfloral
p3193
aVhop
p3194
aVbitterness
p3195
aVlight-medium
p3196
aVbodied
p3197
aVcreamy
p3198
aVtexture
p3199
aVnice
p3200
aVdense
p3201
aVcreamy
p3202
aVfoam
p3203
aVaroma
p3204
aVwell
p3205
aVhidden
p3206
aVfine
p3207
aVfoam
p3208
aVlittle
p3209
aVhard
p3210
aVroasted
p3211
aVmalt
p3212
aVlight
p3213
aVnotes
p3214
aVlicorice
p3215
aVglimpsed
p3216
aVtaste
p3217
aVinitially
p3218
aVlittle
p3219
aVwater
p3220
aVdistinct
p3221
aVflavor
p3222
aVnotes
p3223
aVmocha
p3224
aVgood
p3225
aVenglish
p3226
aVlicorice
p3227
aVcomfortable
p3228
aVhop
p3229
aVbitterness
p3230
aVdry
p3231
aVaftertaste
p3232
aVincredibly
p3233
aVdelicious
p3234
aVstout
p3235
aVpours
p3236
aVdark
p3237
aVreddish
p3238
aVbrown
p3239
aVcreamy
p3240
aVbeige
p3241
aVhead
p3242
aVaroma
p3243
aVnotes
p3244
aVroasted
p3245
aVmalts
p3246
aVchocolate
p3247
aVtaste
p3248
aVrather
p3249
aVsimilar
p3250
aVmalts
p3251
aVchocolate
p3252
aVhint
p3253
aVliquorice
p3254
aVfinishes
p3255
aVmoderately
p3256
aVcrispy
p3257
aVfloral
p3258
aVnotes
p3259
aVsmooth
p3260
aVmouthfeel
p3261
aVslightly
p3262
aVwatery
p3263
aV500ml
p3264
aVbb25.08.17
p3265
aVtap
p3266
aVpours
p3267
aVdark
p3268
aVbrown
p3269
aVthick
p3270
aVcreamy
p3271
aVoff-white
p3272
aVhead
p3273
aVgood
p3274
aVlacing
p3275
aVslight
p3276
aVaroma
p3277
aVmalts
p3278
aVtoffee
p3279
aVmalty
p3280
aVtaste
p3281
aVcaramel
p3282
aVslightly
p3283
aVsweet
p3284
aVsmooth
p3285
aVfinish
p3286
aVmedium
p3287
aVbody
p3288
aVcarbonation
p3289
aVroasted
p3290
aVmalts
p3291
aVhints
p3292
aVcoffee
p3293
aVpitch
p3294
aVblack
p3295
aVdark
p3296
aVruby/brown
p3297
aVreflections
p3298
aVcreamy
p3299
aVrocky
p3300
aVbeige
p3301
aVhead
p3302
aVtaste
p3303
aVsimilar
p3304
aVaroma
p3305
aVquite
p3306
aVgood
p3307
aVperfect
p3308
aVclassic
p3309
aVirish
p3310
aVpub
p3311
aVde
p3312
aVtemple
p3313
aVbar
p3314
aVpub..
p3315
aVmaar
p3316
aVook
p3317
aVal
p3318
aVvan
p3319
aVheineken
p3320
aVireland..
p3321
aVruikt
p3322
aVvooral
p3323
aVnaar
p3324
aVde
p3325
aVhot
p3326
aVchocolate
p3327
aVvan
p3328
aVsuus
p3329
aVverder
p3330
aVweer
p3331
aVprima
p3332
aVguinness
p3333
aVachtig
p3334
aVtasted
p3335
aVtap
p3336
aVseveral
p3337
aVtimes
p3338
ag104
aVmonths
p3339
aVstay
p3340
aVcork
p3341
aVback
p3342
aVhappy
p3343
aVdays
p3344
aVdrinking
p3345
aVirish
p3346
aVbeer
p3347
aVpartying
p3348
aVirish
p3349
aVpeople
p3350
aVone
p3351
aVmust
p3352
aVnext
p3353
aVone
p3354
aVplease
p3355
aVblack
p3356
aVcreamy
p3357
aVwhite
p3358
aVhead
p3359
aVroast
p3360
aVmilk
p3361
aVchocolate
p3362
aVcoffee
p3363
aVsmooth
p3364
aVfloral
p3365
aVnutty
p3366
aVashtray
p3367
aVlight
p3368
aVacidic
p3369
aVfinish
p3370
aVoverall
p3371
aVgood
p3372
aVguinness
p3373
aVpours
p3374
aVblack
p3375
aVcolour
p3376
aVtaste
p3377
aVroast
p3378
aVmalts
p3379
aVchocolate
p3380
aVliqourice
p3381
aVpalate
p3382
aVdraught
p3383
aVtom
p3384
aVbarry
p3385
aValmost
p3386
aVblack
p3387
aVcreamy
p3388
aVoff-white
p3389
aVhead
p3390
aVroasty
p3391
aVmalt
p3392
aVcoffee
p3393
aVaroma
p3394
aVsmooth
p3395
aVbitter
p3396
aVstart
p3397
aVfull
p3398
aVmalty
p3399
aVfinish
p3400
aVgood
p3401
aVmacro
p3402
aVbeer
p3403
aV0.5l
p3404
aVblack
p3405
aVbody
p3406
aVcreamy
p3407
aVlong
p3408
aVlasting
p3409
aVbeige
p3410
aVhead
p3411
aVcascade
p3412
aVeffect
p3413
aVaroma
p3414
aVchocolate
p3415
aVcoffee
p3416
aVberries
p3417
aVtaste
p3418
aVcoffee
p3419
aVchocolate
p3420
aVcherries
p3421
aVberries
p3422
aVbit
p3423
aVfloral
p3424
aVhop
p3425
aVbitterness
p3426
aVlight-medium
p3427
aVbodied
p3428
aVcreamy
p3429
aVtexture
p3430
aVnice
p3431
aVdense
p3432
aVcreamy
p3433
aVfoam
p3434
aVaroma
p3435
aVwell
p3436
aVhidden
p3437
aVfine
p3438
aVfoam
p3439
aVlittle
p3440
aVhard
p3441
aVroasted
p3442
aVmalt
p3443
aVlight
p3444
aVnotes
p3445
aVlicorice
p3446
aVglimpsed
p3447
aVtaste
p3448
aVinitially
p3449
aVlittle
p3450
aVwater
p3451
aVdistinct
p3452
aVflavor
p3453
aVnotes
p3454
aVmocha
p3455
aVgood
p3456
aVenglish
p3457
aVlicorice
p3458
aVcomfortable
p3459
aVhop
p3460
aVbitterness
p3461
aVdry
p3462
aVaftertaste
p3463
aVincredibly
p3464
aVdelicious
p3465
aVstout
p3466
aVpours
p3467
aVdark
p3468
aVreddish
p3469
aVbrown
p3470
aVcreamy
p3471
aVbeige
p3472
aVhead
p3473
aVaroma
p3474
aVnotes
p3475
aVroasted
p3476
aVmalts
p3477
aVchocolate
p3478
aVtaste
p3479
aVrather
p3480
aVsimilar
p3481
aVmalts
p3482
aVchocolate
p3483
aVhint
p3484
aVliquorice
p3485
aVfinishes
p3486
aVmoderately
p3487
aVcrispy
p3488
aVfloral
p3489
aVnotes
p3490
aVsmooth
p3491
aVmouthfeel
p3492
aVslightly
p3493
aVwatery
p3494
aV500ml
p3495
aVbb25.08.17
p3496
aVtap
p3497
aVpours
p3498
aVdark
p3499
aVbrown
p3500
aVthick
p3501
aVcreamy
p3502
aVoff-white
p3503
aVhead
p3504
aVgood
p3505
aVlacing
p3506
aVslight
p3507
aVaroma
p3508
aVmalts
p3509
aVtoffee
p3510
aVmalty
p3511
aVtaste
p3512
aVcaramel
p3513
aVslightly
p3514
aVsweet
p3515
aVsmooth
p3516
aVfinish
p3517
aVmedium
p3518
aVbody
p3519
aVcarbonation
p3520
aVroasted
p3521
aVmalts
p3522
aVhints
p3523
aVcoffee
p3524
aVpitch
p3525
aVblack
p3526
aVdark
p3527
aVruby/brown
p3528
aVreflections
p3529
aVcreamy
p3530
aVrocky
p3531
aVbeige
p3532
aVhead
p3533
aVtaste
p3534
aVsimilar
p3535
aVaroma
p3536
aVquite
p3537
aVgood
p3538
aVperfect
p3539
aVclassic
p3540
aVirish
p3541
aVpub
p3542
aVde
p3543
aVtemple
p3544
aVbar
p3545
aVpub..
p3546
aVmaar
p3547
aVook
p3548
aVal
p3549
aVvan
p3550
aVheineken
p3551
aVireland..
p3552
aVruikt
p3553
aVvooral
p3554
aVnaar
p3555
aVde
p3556
aVhot
p3557
aVchocolate
p3558
aVvan
p3559
aVsuus
p3560
aVverder
p3561
aVweer
p3562
aVprima
p3563
aVguinness
p3564
aVachtig
p3565
aVtasted
p3566
aVtap
p3567
aVseveral
p3568
aVtimes
p3569
ag104
aVmonths
p3570
aVstay
p3571
aVcork
p3572
aVback
p3573
aVhappy
p3574
aVdays
p3575
aVdrinking
p3576
aVirish
p3577
aVbeer
p3578
aVpartying
p3579
aVirish
p3580
aVpeople
p3581
aVone
p3582
aVmust
p3583
aVnext
p3584
aVone
p3585
aVplease
p3586
aVblack
p3587
aVcreamy
p3588
aVwhite
p3589
aVhead
p3590
aVroast
p3591
aVmilk
p3592
aVchocolate
p3593
aVcoffee
p3594
aVsmooth
p3595
aVfloral
p3596
aVnutty
p3597
aVashtray
p3598
aVlight
p3599
aVacidic
p3600
aVfinish
p3601
aVoverall
p3602
aVgood
p3603
aVguinness
p3604
aVpours
p3605
aVblack
p3606
aVcolour
p3607
aVtaste
p3608
aVroast
p3609
aVmalts
p3610
aVchocolate
p3611
aVliqourice
p3612
aVpalate
p3613
aVdraught
p3614
aVtom
p3615
aVbarry
p3616
aValmost
p3617
aVblack
p3618
aVcreamy
p3619
aVoff-white
p3620
aVhead
p3621
aVroasty
p3622
aVmalt
p3623
aVcoffee
p3624
aVaroma
p3625
aVsmooth
p3626
aVbitter
p3627
aVstart
p3628
aVfull
p3629
aVmalty
p3630
aVfinish
p3631
aVgood
p3632
aVmacro
p3633
aVbeer
p3634
aV0.5l
p3635
aVblack
p3636
aVbody
p3637
aVcreamy
p3638
aVlong
p3639
aVlasting
p3640
aVbeige
p3641
aVhead
p3642
aVcascade
p3643
aVeffect
p3644
aVaroma
p3645
aVchocolate
p3646
aVcoffee
p3647
aVberries
p3648
aVtaste
p3649
aVcoffee
p3650
aVchocolate
p3651
aVcherries
p3652
aVberries
p3653
aVbit
p3654
aVfloral
p3655
aVhop
p3656
aVbitterness
p3657
aVlight-medium
p3658
aVbodied
p3659
aVcreamy
p3660
aVtexture
p3661
aVnice
p3662
aVdense
p3663
aVcreamy
p3664
aVfoam
p3665
aVaroma
p3666
aVwell
p3667
aVhidden
p3668
aVfine
p3669
aVfoam
p3670
aVlittle
p3671
aVhard
p3672
aVroasted
p3673
aVmalt
p3674
aVlight
p3675
aVnotes
p3676
aVlicorice
p3677
aVglimpsed
p3678
aVtaste
p3679
aVinitially
p3680
aVlittle
p3681
aVwater
p3682
aVdistinct
p3683
aVflavor
p3684
aVnotes
p3685
aVmocha
p3686
aVgood
p3687
aVenglish
p3688
aVlicorice
p3689
aVcomfortable
p3690
aVhop
p3691
aVbitterness
p3692
aVdry
p3693
aVaftertaste
p3694
aVincredibly
p3695
aVdelicious
p3696
aVstout
p3697
aVpours
p3698
aVdark
p3699
aVreddish
p3700
aVbrown
p3701
aVcreamy
p3702
aVbeige
p3703
aVhead
p3704
aVaroma
p3705
aVnotes
p3706
aVroasted
p3707
aVmalts
p3708
aVchocolate
p3709
aVtaste
p3710
aVrather
p3711
aVsimilar
p3712
aVmalts
p3713
aVchocolate
p3714
aVhint
p3715
aVliquorice
p3716
aVfinishes
p3717
aVmoderately
p3718
aVcrispy
p3719
aVfloral
p3720
aVnotes
p3721
aVsmooth
p3722
aVmouthfeel
p3723
aVslightly
p3724
aVwatery
p3725
aV500ml
p3726
aVbb25.08.17
p3727
aVtap
p3728
aVpours
p3729
aVdark
p3730
aVbrown
p3731
aVthick
p3732
aVcreamy
p3733
aVoff-white
p3734
aVhead
p3735
aVgood
p3736
aVlacing
p3737
aVslight
p3738
aVaroma
p3739
aVmalts
p3740
aVtoffee
p3741
aVmalty
p3742
aVtaste
p3743
aVcaramel
p3744
aVslightly
p3745
aVsweet
p3746
aVsmooth
p3747
aVfinish
p3748
aVmedium
p3749
aVbody
p3750
aVcarbonation
p3751
aVroasted
p3752
aVmalts
p3753
aVhints
p3754
aVcoffee
p3755
aVpitch
p3756
aVblack
p3757
aVdark
p3758
aVruby/brown
p3759
aVreflections
p3760
aVcreamy
p3761
aVrocky
p3762
aVbeige
p3763
aVhead
p3764
aVtaste
p3765
aVsimilar
p3766
aVaroma
p3767
aVquite
p3768
aVgood
p3769
aVperfect
p3770
aVclassic
p3771
aVirish
p3772
aVpub
p3773
aVde
p3774
aVtemple
p3775
aVbar
p3776
aVpub..
p3777
aVmaar
p3778
aVook
p3779
aVal
p3780
aVvan
p3781
aVheineken
p3782
aVireland..
p3783
aVruikt
p3784
aVvooral
p3785
aVnaar
p3786
aVde
p3787
aVhot
p3788
aVchocolate
p3789
aVvan
p3790
aVsuus
p3791
aVverder
p3792
aVweer
p3793
aVprima
p3794
aVguinness
p3795
aVachtig
p3796
aVtasted
p3797
aVtap
p3798
aVseveral
p3799
aVtimes
p3800
ag104
aVmonths
p3801
aVstay
p3802
aVcork
p3803
aVback
p3804
aVhappy
p3805
aVdays
p3806
aVdrinking
p3807
aVirish
p3808
aVbeer
p3809
aVpartying
p3810
aVirish
p3811
aVpeople
p3812
aVone
p3813
aVmust
p3814
aVnext
p3815
aVone
p3816
aVplease
p3817
aVblack
p3818
aVcreamy
p3819
aVwhite
p3820
aVhead
p3821
aVroast
p3822
aVmilk
p3823
aVchocolate
p3824
aVcoffee
p3825
aVsmooth
p3826
aVfloral
p3827
aVnutty
p3828
aVashtray
p3829
aVlight
p3830
aVacidic
p3831
aVfinish
p3832
aVoverall
p3833
aVgood
p3834
aVguinness
p3835
aVpours
p3836
aVblack
p3837
aVcolour
p3838
aVtaste
p3839
aVroast
p3840
aVmalts
p3841
aVchocolate
p3842
aVliqourice
p3843
aVpalate
p3844
aVdraught
p3845
aVtom
p3846
aVbarry
p3847
aValmost
p3848
aVblack
p3849
aVcreamy
p3850
aVoff-white
p3851
aVhead
p3852
aVroasty
p3853
aVmalt
p3854
aVcoffee
p3855
aVaroma
p3856
aVsmooth
p3857
aVbitter
p3858
aVstart
p3859
aVfull
p3860
aVmalty
p3861
aVfinish
p3862
aVgood
p3863
aVmacro
p3864
aVbeer
p3865
aV0.5l
p3866
aVblack
p3867
aVbody
p3868
aVcreamy
p3869
aVlong
p3870
aVlasting
p3871
aVbeige
p3872
aVhead
p3873
aVcascade
p3874
aVeffect
p3875
aVaroma
p3876
aVchocolate
p3877
aVcoffee
p3878
aVberries
p3879
aVtaste
p3880
aVcoffee
p3881
aVchocolate
p3882
aVcherries
p3883
aVberries
p3884
aVbit
p3885
aVfloral
p3886
aVhop
p3887
aVbitterness
p3888
aVlight-medium
p3889
aVbodied
p3890
aVcreamy
p3891
aVtexture
p3892
aVnice
p3893
aVdense
p3894
aVcreamy
p3895
aVfoam
p3896
aVaroma
p3897
aVwell
p3898
aVhidden
p3899
aVfine
p3900
aVfoam
p3901
aVlittle
p3902
aVhard
p3903
aVroasted
p3904
aVmalt
p3905
aVlight
p3906
aVnotes
p3907
aVlicorice
p3908
aVglimpsed
p3909
aVtaste
p3910
aVinitially
p3911
aVlittle
p3912
aVwater
p3913
aVdistinct
p3914
aVflavor
p3915
aVnotes
p3916
aVmocha
p3917
aVgood
p3918
aVenglish
p3919
aVlicorice
p3920
aVcomfortable
p3921
aVhop
p3922
aVbitterness
p3923
aVdry
p3924
aVaftertaste
p3925
aVincredibly
p3926
aVdelicious
p3927
aVstout
p3928
aVpours
p3929
aVdark
p3930
aVreddish
p3931
aVbrown
p3932
aVcreamy
p3933
aVbeige
p3934
aVhead
p3935
aVaroma
p3936
aVnotes
p3937
aVroasted
p3938
aVmalts
p3939
aVchocolate
p3940
aVtaste
p3941
aVrather
p3942
aVsimilar
p3943
aVmalts
p3944
aVchocolate
p3945
aVhint
p3946
aVliquorice
p3947
aVfinishes
p3948
aVmoderately
p3949
aVcrispy
p3950
aVfloral
p3951
aVnotes
p3952
aVsmooth
p3953
aVmouthfeel
p3954
aVslightly
p3955
aVwatery
p3956
aV500ml
p3957
aVbb25.08.17
p3958
aVtap
p3959
aVpours
p3960
aVdark
p3961
aVbrown
p3962
aVthick
p3963
aVcreamy
p3964
aVoff-white
p3965
aVhead
p3966
aVgood
p3967
aVlacing
p3968
aVslight
p3969
aVaroma
p3970
aVmalts
p3971
aVtoffee
p3972
aVmalty
p3973
aVtaste
p3974
aVcaramel
p3975
aVslightly
p3976
aVsweet
p3977
aVsmooth
p3978
aVfinish
p3979
aVmedium
p3980
aVbody
p3981
aVcarbonation
p3982
aVroasted
p3983
aVmalts
p3984
aVhints
p3985
aVcoffee
p3986
aVpitch
p3987
aVblack
p3988
aVdark
p3989
aVruby/brown
p3990
aVreflections
p3991
aVcreamy
p3992
aVrocky
p3993
aVbeige
p3994
aVhead
p3995
aVtaste
p3996
aVsimilar
p3997
aVaroma
p3998
aVquite
p3999
aVgood
p4000
aVperfect
p4001
aVclassic
p4002
aVirish
p4003
aVpub
p4004
aVde
p4005
aVtemple
p4006
aVbar
p4007
aVpub..
p4008
aVmaar
p4009
aVook
p4010
aVal
p4011
aVvan
p4012
aVheineken
p4013
aVireland..
p4014
aVruikt
p4015
aVvooral
p4016
aVnaar
p4017
aVde
p4018
aVhot
p4019
aVchocolate
p4020
aVvan
p4021
aVsuus
p4022
aVverder
p4023
aVweer
p4024
aVprima
p4025
aVguinness
p4026
aVachtig
p4027
aVtasted
p4028
aVtap
p4029
aVseveral
p4030
aVtimes
p4031
ag104
aVmonths
p4032
aVstay
p4033
aVcork
p4034
aVback
p4035
aVhappy
p4036
aVdays
p4037
aVdrinking
p4038
aVirish
p4039
aVbeer
p4040
aVpartying
p4041
aVirish
p4042
aVpeople
p4043
aVone
p4044
aVmust
p4045
aVnext
p4046
aVone
p4047
aVplease
p4048
aVblack
p4049
aVcreamy
p4050
aVwhite
p4051
aVhead
p4052
aVroast
p4053
aVmilk
p4054
aVchocolate
p4055
aVcoffee
p4056
aVsmooth
p4057
aVfloral
p4058
aVnutty
p4059
aVashtray
p4060
aVlight
p4061
aVacidic
p4062
aVfinish
p4063
aVoverall
p4064
aVgood
p4065
aVguinness
p4066
aVpours
p4067
aVblack
p4068
aVcolour
p4069
aVtaste
p4070
aVroast
p4071
aVmalts
p4072
aVchocolate
p4073
aVliqourice
p4074
aVpalate
p4075
aVdraught
p4076
aVtom
p4077
aVbarry
p4078
aValmost
p4079
aVblack
p4080
aVcreamy
p4081
aVoff-white
p4082
aVhead
p4083
aVroasty
p4084
aVmalt
p4085
aVcoffee
p4086
aVaroma
p4087
aVsmooth
p4088
aVbitter
p4089
aVstart
p4090
aVfull
p4091
aVmalty
p4092
aVfinish
p4093
aVgood
p4094
aVmacro
p4095
aVbeer
p4096
aV0.5l
p4097
aVblack
p4098
aVbody
p4099
aVcreamy
p4100
aVlong
p4101
aVlasting
p4102
aVbeige
p4103
aVhead
p4104
aVcascade
p4105
aVeffect
p4106
aVaroma
p4107
aVchocolate
p4108
aVcoffee
p4109
aVberries
p4110
aVtaste
p4111
aVcoffee
p4112
aVchocolate
p4113
aVcherries
p4114
aVberries
p4115
aVbit
p4116
aVfloral
p4117
aVhop
p4118
aVbitterness
p4119
aVlight-medium
p4120
aVbodied
p4121
aVcreamy
p4122
aVtexture
p4123
aVnice
p4124
aVdense
p4125
aVcreamy
p4126
aVfoam
p4127
aVaroma
p4128
aVwell
p4129
aVhidden
p4130
aVfine
p4131
aVfoam
p4132
aVlittle
p4133
aVhard
p4134
aVroasted
p4135
aVmalt
p4136
aVlight
p4137
aVnotes
p4138
aVlicorice
p4139
aVglimpsed
p4140
aVtaste
p4141
aVinitially
p4142
aVlittle
p4143
aVwater
p4144
aVdistinct
p4145
aVflavor
p4146
aVnotes
p4147
aVmocha
p4148
aVgood
p4149
aVenglish
p4150
aVlicorice
p4151
aVcomfortable
p4152
aVhop
p4153
aVbitterness
p4154
aVdry
p4155
aVaftertaste
p4156
aVincredibly
p4157
aVdelicious
p4158
aVstout
p4159
aVpours
p4160
aVdark
p4161
aVreddish
p4162
aVbrown
p4163
aVcreamy
p4164
aVbeige
p4165
aVhead
p4166
aVaroma
p4167
aVnotes
p4168
aVroasted
p4169
aVmalts
p4170
aVchocolate
p4171
aVtaste
p4172
aVrather
p4173
aVsimilar
p4174
aVmalts
p4175
aVchocolate
p4176
aVhint
p4177
aVliquorice
p4178
aVfinishes
p4179
aVmoderately
p4180
aVcrispy
p4181
aVfloral
p4182
aVnotes
p4183
aVsmooth
p4184
aVmouthfeel
p4185
aVslightly
p4186
aVwatery
p4187
aV500ml
p4188
aVbb25.08.17
p4189
aVtap
p4190
aVpours
p4191
aVdark
p4192
aVbrown
p4193
aVthick
p4194
aVcreamy
p4195
aVoff-white
p4196
aVhead
p4197
aVgood
p4198
aVlacing
p4199
aVslight
p4200
aVaroma
p4201
aVmalts
p4202
aVtoffee
p4203
aVmalty
p4204
aVtaste
p4205
aVcaramel
p4206
aVslightly
p4207
aVsweet
p4208
aVsmooth
p4209
aVfinish
p4210
aVmedium
p4211
aVbody
p4212
aVcarbonation
p4213
aVroasted
p4214
aVmalts
p4215
aVhints
p4216
aVcoffee
p4217
aVpitch
p4218
aVblack
p4219
aVdark
p4220
aVruby/brown
p4221
aVreflections
p4222
aVcreamy
p4223
aVrocky
p4224
aVbeige
p4225
aVhead
p4226
aVtaste
p4227
aVsimilar
p4228
aVaroma
p4229
aVquite
p4230
aVgood
p4231
aVperfect
p4232
aVclassic
p4233
aVirish
p4234
aVpub
p4235
aVde
p4236
aVtemple
p4237
aVbar
p4238
aVpub..
p4239
aVmaar
p4240
aVook
p4241
aVal
p4242
aVvan
p4243
aVheineken
p4244
aVireland..
p4245
aVruikt
p4246
aVvooral
p4247
aVnaar
p4248
aVde
p4249
aVhot
p4250
aVchocolate
p4251
aVvan
p4252
aVsuus
p4253
aVverder
p4254
aVweer
p4255
aVprima
p4256
aVguinness
p4257
aVachtig
p4258
aVtasted
p4259
aVtap
p4260
aVseveral
p4261
aVtimes
p4262
ag104
aVmonths
p4263
aVstay
p4264
aVcork
p4265
aVback
p4266
aVhappy
p4267
aVdays
p4268
aVdrinking
p4269
aVirish
p4270
aVbeer
p4271
aVpartying
p4272
aVirish
p4273
aVpeople
p4274
aVone
p4275
aVmust
p4276
aVnext
p4277
aVone
p4278
aVplease
p4279
aVblack
p4280
aVcreamy
p4281
aVwhite
p4282
aVhead
p4283
aVroast
p4284
aVmilk
p4285
aVchocolate
p4286
aVcoffee
p4287
aVsmooth
p4288
aVfloral
p4289
aVnutty
p4290
aVashtray
p4291
aVlight
p4292
aVacidic
p4293
aVfinish
p4294
aVoverall
p4295
aVgood
p4296
aVguinness
p4297
aVpours
p4298
aVblack
p4299
aVcolour
p4300
aVtaste
p4301
aVroast
p4302
aVmalts
p4303
aVchocolate
p4304
aVliqourice
p4305
aVpalate
p4306
aVdraught
p4307
aVtom
p4308
aVbarry
p4309
aValmost
p4310
aVblack
p4311
aVcreamy
p4312
aVoff-white
p4313
aVhead
p4314
aVroasty
p4315
aVmalt
p4316
aVcoffee
p4317
aVaroma
p4318
aVsmooth
p4319
aVbitter
p4320
aVstart
p4321
aVfull
p4322
aVmalty
p4323
aVfinish
p4324
aVgood
p4325
aVmacro
p4326
aVbeer
p4327
aV0.5l
p4328
aVblack
p4329
aVbody
p4330
aVcreamy
p4331
aVlong
p4332
aVlasting
p4333
aVbeige
p4334
aVhead
p4335
aVcascade
p4336
aVeffect
p4337
aVaroma
p4338
aVchocolate
p4339
aVcoffee
p4340
aVberries
p4341
aVtaste
p4342
aVcoffee
p4343
aVchocolate
p4344
aVcherries
p4345
aVberries
p4346
aVbit
p4347
aVfloral
p4348
aVhop
p4349
aVbitterness
p4350
aVlight-medium
p4351
aVbodied
p4352
aVcreamy
p4353
aVtexture
p4354
aVnice
p4355
aVdense
p4356
aVcreamy
p4357
aVfoam
p4358
aVaroma
p4359
aVwell
p4360
aVhidden
p4361
aVfine
p4362
aVfoam
p4363
aVlittle
p4364
aVhard
p4365
aVroasted
p4366
aVmalt
p4367
aVlight
p4368
aVnotes
p4369
aVlicorice
p4370
aVglimpsed
p4371
aVtaste
p4372
aVinitially
p4373
aVlittle
p4374
aVwater
p4375
aVdistinct
p4376
aVflavor
p4377
aVnotes
p4378
aVmocha
p4379
aVgood
p4380
aVenglish
p4381
aVlicorice
p4382
aVcomfortable
p4383
aVhop
p4384
aVbitterness
p4385
aVdry
p4386
aVaftertaste
p4387
aVincredibly
p4388
aVdelicious
p4389
aVstout
p4390
a.