(lp0
(lp1
S'3 Fonteinen Oude Geuze'
p2
aS'311168'
p3
aF6.0
aI1
aI7
aI0
aS'http://res.cloudinary.com/ratebeer/image/upload/w_250,c_limit/beer_311168.jpg'
p4
aa(lp5
S'Anchor Saison Spring Ale '
p6
aS'254031'
p7
aF6.0
aI8
aI7
aI0
aS'http://res.cloudinary.com/ratebeer/image/upload/w_250,c_limit/beer_254031.jpg'
p8
aa(lp9
S'Anchor Zymaster No. 6 '
p10
aS'6277714'
p11
aF5.8
aI8
aI7
aI0
aS'http://res.cloudinary.com/ratebeer/image/upload/w_250,c_limit/beer_6277714.jpg'
p12
aa(lp13
S'Aecht Schlenkerla Weizen '
p14
aS'8565'
p15
aF3.6
aI8
aI7
aI0
aS'http://res.cloudinary.com/ratebeer/image/upload/w_250,c_limit/beer_8565.jpg'
p16
aa(lp17
S'Anchor Christmas 2015  '
p18
aS'200552930'
p19
aF5.3
aI8
aI7
aI0
aS'http://res.cloudinary.com/ratebeer/image/upload/w_250,c_limit/beer_200552930.jpg'
p20
aa(lp21
S'Anchor Brekles Brown '
p22
aS'139388'
p23
aF4.3
aI1
aF4.0
aI0
aS'http://res.cloudinary.com/ratebeer/image/upload/w_250,c_limit/beer_139388.jpg'
p24
aa(lp25
S'3 Fonteinen Oude Geuze Gold 75'
p26
aS'311168'
p27
aF6.0
aI1
aI7
aI0
aS'http://res.cloudinary.com/ratebeer/image/upload/w_250,c_limit/beer_311168.jpg'
p28
aa(lp29
S'Anchor Christmas 2015 '
p30
aS'200552930'
p31
aF5.3
aI1
aI7
aI0
aS'http://res.cloudinary.com/ratebeer/image/upload/w_250,c_limit/beer_200552930.jpg'
p32
aa(lp33
S'Asahi '
p34
aNaF5.0
aI1
aI100
aI0
aS'image not found'
p35
aa(lp36
S'Anchor Liberty Ale '
p37
aS'47'
p38
aF4.5
aI1
aF43.0
aI0
aS'http://res.cloudinary.com/ratebeer/image/upload/w_250,c_limit/beer_47.jpg'
p39
aa(lp40
S'BAREFOOT BOHEMIAN LAGER '
p41
aS'172470'
p42
aF3.6
aI1
aF33.0
aF1.0
aS'http://res.cloudinary.com/ratebeer/image/upload/w_250,c_limit/beer_172470.jpg'
p43
aa(lp44
S'3 Fonteinen Intense Red '
p45
aS'3210269'
p46
aF5.8
aI1
aI7
aI0
aS'http://res.cloudinary.com/ratebeer/image/upload/w_250,c_limit/beer_3210269.jpg'
p47
aa(lp48
S'3 Fonteinen Oude Geuze '
p49
aS'311168'
p50
aF6.0
aI1
aI7
aI0
aS'http://res.cloudinary.com/ratebeer/image/upload/w_250,c_limit/beer_311168.jpg'
p51
aa(lp52
S'3 Fonteinen Oude Kreik'
p53
aS'311175'
p54
aF5.3
aI1
aI7
aI0
aS'http://res.cloudinary.com/ratebeer/image/upload/w_250,c_limit/beer_311175.jpg'
p55
aa(lp56
S'3 Fonteinen Oude Kreik '
p57
aS'311175'
p58
aF6.3
aI1
aI7
aI0
aS'http://res.cloudinary.com/ratebeer/image/upload/w_250,c_limit/beer_311175.jpg'
p59
aa(lp60
S'Anchor IPA '
p61
aNaF6.5
aI1
aI100
aI0
ag35
aa(lp62
S'Anchor Steam Beer '
p63
aS'46'
p64
aF1.9
aI1
aF29.0
aI0
aS'http://res.cloudinary.com/ratebeer/image/upload/w_250,c_limit/beer_46.jpg'
p65
aa(lp66
S'Anderson V Brother David '
p67
aS'34081'
p68
aF10.4
aI1
aI7
aI0
aS'http://res.cloudinary.com/ratebeer/image/upload/w_250,c_limit/beer_34081.jpg'
p69
aa(lp70
S'Anchor Old Foghorn '
p71
aS'4728'
p72
aF9.5
aI1
aI7
aI0
aS'http://res.cloudinary.com/ratebeer/image/upload/w_250,c_limit/beer_4728.jpg'
p73
aa(lp74
S'Anchor Porter '
p75
aS'48'
p76
aF4.6
aI1
aI7
aI0
aS'http://res.cloudinary.com/ratebeer/image/upload/w_250,c_limit/beer_48.jpg'
p77
aa.