(lp0
(lp1
S'3 Fonteinen Oude Geuze'
p2
aS'311168'
p3
aF6.0
aI1
aF0.0
aI0
aS'http://res.cloudinary.com/ratebeer/image/upload/w_250,c_limit/beer_311168.jpg'
p4
aa(lp5
S'KNOCKMEALDOWN PORTER '
p6
aS'160562'
p7
aF5.0
aI4
aI7
aI0
aS'http://res.cloudinary.com/ratebeer/image/upload/w_250,c_limit/beer_160562.jpg'
p8
aa(lp9
S'La Trappe Tripel '
p10
aS'4564'
p11
aF8.1
aI4
aI7
aI0
aS'http://res.cloudinary.com/ratebeer/image/upload/w_250,c_limit/beer_4564.jpg'
p12
aa(lp13
S'Boon Oude Geuze Black Label'
p14
aS'367485'
p15
aF7.0
aI4
aF6.0
aF8.0
aS'http://res.cloudinary.com/ratebeer/image/upload/w_250,c_limit/beer_367485.jpg'
p16
aa(lp17
S'Little Creatures Pale Ale 330M'
p18
aS'7658'
p19
aF4.8
aI1
aF33.0
aI0
aS'http://res.cloudinary.com/ratebeer/image/upload/w_250,c_limit/beer_7658.jpg'
p20
aa(lp21
S'Anchor Christmas 2015 '
p22
aS'200552930'
p23
aF5.5
aI1
aI100
aI0
aS'http://res.cloudinary.com/ratebeer/image/upload/w_250,c_limit/beer_200552930.jpg'
p24
aa(lp25
S'BrewDog Elvis Juice '
p26
aS'2016388589'
p27
aF6.5
aI1
aI100
aI0
aS'http://res.cloudinary.com/ratebeer/image/upload/w_250,c_limit/beer_2016388589.jpg'
p28
aa(lp29
S'Krombacher Pils Can '
p30
aS'3370'
p31
aF4.8
aI1
aI7
aI0
aS'http://res.cloudinary.com/ratebeer/image/upload/w_250,c_limit/beer_3370.jpg'
p32
aa(lp33
S'Brooklyn Blast Ale '
p34
aS'51334'
p35
aF8.4
aI1
aF36.0
aI0
aS'http://res.cloudinary.com/ratebeer/image/upload/w_250,c_limit/beer_51334.jpg'
p36
aa(lp37
S'Bzat Kriekenlambiek Oud Beerse'
p38
aNaF8.0
aI1
aI100
aI0
aS'image not found'
p39
aa(lp40
S'Metalman Equinox Can '
p41
aS'206033'
p42
aF4.4
aI1
aF40.0
aI0
aS'http://res.cloudinary.com/ratebeer/image/upload/w_250,c_limit/beer_206033.jpg'
p43
aa(lp44
S'MOOSEHEAD '
p45
aNaF5.0
aI1
aI100
aI0
ag39
aa(lp46
S'Birrifico Verdi Black Jack 330'
p47
aS'12425921'
p48
aF10.0
aI1
aI100
aI0
aS'http://res.cloudinary.com/ratebeer/image/upload/w_250,c_limit/beer_12425921.jpg'
p49
aa(lp50
S'CURIM '
p51
aS'4941'
p52
aF4.2
aI1
aI7
aI0
aS'http://res.cloudinary.com/ratebeer/image/upload/w_250,c_limit/beer_4941.jpg'
p53
aa(lp54
S'Camden Town IHL Barrel Aged 66'
p55
aS'316205'
p56
aF7.2
aI1
aF29.0
aI0
aS'http://res.cloudinary.com/ratebeer/image/upload/w_250,c_limit/beer_316205.jpg'
p57
aa(lp58
S'Brooklyn Improved Old Fashione'
p59
aNaF12.8
aI1
aI100
aI0
ag39
aa(lp60
S'Mikkeller Spontan Cherry '
p61
aS'205607'
p62
aF7.1
aI1
aI7
aF3.0
aS'http://res.cloudinary.com/ratebeer/image/upload/w_250,c_limit/beer_205607.jpg'
p63
aa(lp64
S'Chapeau Cuvee Oude Geuze '
p65
aS'6241'
p66
aF5.3
aI1
aF47.0
aF3.0
aS'http://res.cloudinary.com/ratebeer/image/upload/w_250,c_limit/beer_6241.jpg'
p67
aa(lp68
S'Lagunitas Equinox '
p69
aS'8219'
p70
aF8.4
aI1
aF7.0
aI0
aS'http://res.cloudinary.com/ratebeer/image/upload/w_250,c_limit/beer_8219.jpg'
p71
aa(lp72
S'La Trappe Blonde '
p73
aS'10380'
p74
aF6.5
aI1
aI7
aF1.0
aS'http://res.cloudinary.com/ratebeer/image/upload/w_250,c_limit/beer_10380.jpg'
p75
aa(lp76
S'BrewDog Dead Pony Club Can 330'
p77
aS'172207'
p78
aF3.5
aI1
aF40.0
aI0
aS'http://res.cloudinary.com/ratebeer/image/upload/w_250,c_limit/beer_172207.jpg'
p79
aa(lp80
S'Bzat Lambiek Oud Beersel '
p81
aS'23561'
p82
aF7.8
aI1
aF34.0
aF4.0
aS'http://res.cloudinary.com/ratebeer/image/upload/w_250,c_limit/beer_23561.jpg'
p83
aa(lp84
S'Boon Framboise '
p85
aS'4430'
p86
aF6.1
aI1
aI7
aF3.0
aS'http://res.cloudinary.com/ratebeer/image/upload/w_250,c_limit/beer_4430.jpg'
p87
aa(lp88
S'Brooklyn K is for Kriek'
p89
aS'313624'
p90
aF10.0
aI1
aI7
aF4.0
aS'http://res.cloudinary.com/ratebeer/image/upload/w_250,c_limit/beer_313624.jpg'
p91
aa(lp92
S'Left Hand Wake Up Dead '
p93
aS'429'
p94
aF10.1
aI1
aI7
aI0
aS'http://res.cloudinary.com/ratebeer/image/upload/w_250,c_limit/beer_429.jpg'
p95
aa(lp96
S'BrewDog JackHammer Can '
p97
aS'178585'
p98
aF6.9
aI1
aF50.0
aI0
aS'http://res.cloudinary.com/ratebeer/image/upload/w_250,c_limit/beer_178585.jpg'
p99
aa(lp100
S'Founders Devil Dancer '
p101
aS'34518'
p102
aF11.8
aI1
aF31.0
aI0
aS'http://res.cloudinary.com/ratebeer/image/upload/w_250,c_limit/beer_34518.jpg'
p103
aa(lp104
S'Mikkeller Raspberry Trippelboc'
p105
aS'317889'
p106
aF13.1
aI1
aI7
aI0
aS'http://res.cloudinary.com/ratebeer/image/upload/w_250,c_limit/beer_317889.jpg'
p107
aa(lp108
S'Bay Ale Irish Red Ale '
p109
aS'375824'
p110
aF4.3
aI1
aF29.0
aI0
aS'http://res.cloudinary.com/ratebeer/image/upload/w_250,c_limit/beer_375824.jpg'
p111
aa(lp112
S'CHIMAY BLUE GRANDE RES'
p113
aS'53'
p114
aF9.0
aI1
aI7
aI0
aS'http://res.cloudinary.com/ratebeer/image/upload/w_250,c_limit/beer_53.jpg'
p115
aa(lp116
S'CORONA '
p117
aNaF4.6
aI1
aI100
aI0
ag39
aa(lp118
S'Kinnegar Brewing Yannaroddy'
p119
aS'240804'
p120
aF4.7
aI1
aI7
aI0
aS'http://res.cloudinary.com/ratebeer/image/upload/w_250,c_limit/beer_240804.jpg'
p121
aa(lp122
S'Anchor Porter '
p123
aS'48'
p124
aF5.6
aI1
aI7
aI0
aS'http://res.cloudinary.com/ratebeer/image/upload/w_250,c_limit/beer_48.jpg'
p125
aa(lp126
S'Left Hand Smokejumper '
p127
aS'65635'
p128
aF8.7
aI1
aI7
aI0
aS'http://res.cloudinary.com/ratebeer/image/upload/w_250,c_limit/beer_65635.jpg'
p129
aa(lp130
S'BrewDog Cocoa Psycho'
p131
aS'194513'
p132
aF10.1
aI1
aI7
aI0
aS'http://res.cloudinary.com/ratebeer/image/upload/w_250,c_limit/beer_194513.jpg'
p133
aa(lp134
S'BlackJack Drogheda Cream '
p135
aS'314862'
p136
aF4.6
aI1
aI7
aI0
aS'http://res.cloudinary.com/ratebeer/image/upload/w_250,c_limit/beer_314862.jpg'
p137
aa(lp138
S'BrewDog 5AM Saint '
p139
aS'5107269'
p140
aF5.0
aI1
aI100
aI0
aS'http://res.cloudinary.com/ratebeer/image/upload/w_250,c_limit/beer_5107269.jpg'
p141
aa(lp142
S'Asahi '
p143
aNaF5.0
aI1
aI100
aI0
ag39
aa(lp144
S'BrewDog Sink The Bismark 375M'
p145
aS'118414'
p146
aF41.4
aI1
aF31.0
aI0
aS'http://res.cloudinary.com/ratebeer/image/upload/w_250,c_limit/beer_118414.jpg'
p147
aa(lp148
S'BREWDOG PUNK IPA '
p149
aS'56135361'
p150
aF5.6
aI1
aI100
aI0
aS'http://res.cloudinary.com/ratebeer/image/upload/w_250,c_limit/beer_56135361.jpg'
p151
aa(lp152
S'Founders Centennial IPA '
p153
aS'3168'
p154
aF7.0
aI1
aF35.0
aI0
aS'http://res.cloudinary.com/ratebeer/image/upload/w_250,c_limit/beer_3168.jpg'
p155
aa(lp156
S'Boon Geuze '
p157
aS'4631'
p158
aF6.5
aI1
aI7
aF8.0
aS'http://res.cloudinary.com/ratebeer/image/upload/w_250,c_limit/beer_4631.jpg'
p159
aa(lp160
S'Beoir Chorca Cul Dorcha 500M'
p161
aS'157993'
p162
aF5.0
aI1
aI7
aI0
aS'http://res.cloudinary.com/ratebeer/image/upload/w_250,c_limit/beer_157993.jpg'
p163
aa(lp164
S'Anchor IPA '
p165
aNaF6.5
aI1
aI100
aI0
ag39
aa(lp166
S'Lagunitas IPA '
p167
aS'6887'
p168
aF5.8
aI1
aF35.0
aI0
aS'http://res.cloudinary.com/ratebeer/image/upload/w_250,c_limit/beer_6887.jpg'
p169
aa(lp170
S'Maisel '
p171
aS'185853'
p172
aF7.3
aI1
aI7
aI0
aS'http://res.cloudinary.com/ratebeer/image/upload/w_250,c_limit/beer_185853.jpg'
p173
aa(lp174
S'CHIMAY RED PREMIERE '
p175
aS'51'
p176
aF7.0
aI1
aI7
aI0
aS'http://res.cloudinary.com/ratebeer/image/upload/w_250,c_limit/beer_51.jpg'
p177
aa(lp178
S'Brooklyn Monster Ale '
p179
aS'538'
p180
aF10.2
aI1
aI7
aI0
aS'http://res.cloudinary.com/ratebeer/image/upload/w_250,c_limit/beer_538.jpg'
p181
aa(lp182
S'Lindemans Spontanbasil 750'
p183
aS'331545'
p184
aF5.7
aI1
aF1.0
aF6.0
aS'http://res.cloudinary.com/ratebeer/image/upload/w_250,c_limit/beer_331545.jpg'
p185
aa(lp186
S'Mine Head '
p187
aNaF5.5
aI1
aI100
aI0
ag39
aa(lp188
S'Founders Porter '
p189
aS'3173'
p190
aF6.5
aI1
aI7
aI0
aS'http://res.cloudinary.com/ratebeer/image/upload/w_250,c_limit/beer_3173.jpg'
p191
aa(lp192
S'BrewDog Black Eyed King Imp 33'
p193
aS'369326'
p194
aF12.9
aI1
aI7
aI0
aS'http://res.cloudinary.com/ratebeer/image/upload/w_250,c_limit/beer_369326.jpg'
p195
aa(lp196
S'Boon Kreik Mariage Parfai'
p197
aS'6924'
p198
aF7.9
aI1
aF3.0
aF7.0
aS'http://res.cloudinary.com/ratebeer/image/upload/w_250,c_limit/beer_6924.jpg'
p199
aa(lp200
S'CHIMAY WHITE CINQ CENTS '
p201
aS'52'
p202
aF7.7
aI1
aF33.0
aI0
aS'http://res.cloudinary.com/ratebeer/image/upload/w_250,c_limit/beer_52.jpg'
p203
aa(lp204
S'Brooklyn Hand '
p205
aS'291968'
p206
aF13.5
aI1
aI7
aI0
aS'http://res.cloudinary.com/ratebeer/image/upload/w_250,c_limit/beer_291968.jpg'
p207
aa(lp208
S'Brooklyn Local 2 '
p209
aS'296545'
p210
aF8.9
aI1
aF8.0
aI0
aS'http://res.cloudinary.com/ratebeer/image/upload/w_250,c_limit/beer_296545.jpg'
p211
aa(lp212
S'La Trappe Dubbel '
p213
aS'4563'
p214
aF6.9
aI1
aI7
aI0
aS'http://res.cloudinary.com/ratebeer/image/upload/w_250,c_limit/beer_4563.jpg'
p215
aa(lp216
S'BREWDOG TOKYO '
p217
aS'107203'
p218
aF16.6
aI1
aF1.0
aI0
aS'http://res.cloudinary.com/ratebeer/image/upload/w_250,c_limit/beer_107203.jpg'
p219
aa(lp220
S'Aecht Schlenkerla Weizen '
p221
aS'8565'
p222
aF5.1
aI1
aF5.0
aI0
aS'http://res.cloudinary.com/ratebeer/image/upload/w_250,c_limit/beer_8565.jpg'
p223
aa(lp224
S'Founders Mango Magnifico '
p225
aS'7219170'
p226
aF10.0
aI1
aI100
aI0
aS'http://res.cloudinary.com/ratebeer/image/upload/w_250,c_limit/beer_7219170.jpg'
p227
aa(lp228
S'Boon Kriek '
p229
aS'4505'
p230
aF3.3
aI1
aI7
aI0
aS'http://res.cloudinary.com/ratebeer/image/upload/w_250,c_limit/beer_4505.jpg'
p231
aa(lp232
S'Fourpure Oatmeal Stout Can 330'
p233
aS'23831219'
p234
aF5.1
aI1
aI100
aI0
aS'http://res.cloudinary.com/ratebeer/image/upload/w_250,c_limit/beer_23831219.jpg'
p235
aa(lp236
S'Metalman Heatsink '
p237
aS'313991'
p238
aF4.6
aI1
aI7
aI0
aS'http://res.cloudinary.com/ratebeer/image/upload/w_250,c_limit/beer_313991.jpg'
p239
aa(lp240
S'Fourpure Juicebox Citrus IPA 5'
p241
aS'408187'
p242
aF5.8
aI1
aF45.0
aI0
aS'http://res.cloudinary.com/ratebeer/image/upload/w_250,c_limit/beer_408187.jpg'
p243
aa(lp244
S'CHIMAY BLUE '
p245
aS'53'
p246
aF9.0
aI1
aI7
aI0
aS'http://res.cloudinary.com/ratebeer/image/upload/w_250,c_limit/beer_53.jpg'
p247
aa(lp248
S'Founders Imperial Stout '
p249
aS'5933'
p250
aF10.5
aI1
aI7
aI0
aS'http://res.cloudinary.com/ratebeer/image/upload/w_250,c_limit/beer_5933.jpg'
p251
aa(lp252
S'BrewDog Nanny State '
p253
aS'05117796'
p254
aF0.5
aI1
aI100
aI0
aS'http://res.cloudinary.com/ratebeer/image/upload/w_250,c_limit/beer_05117796.jpg'
p255
aa(lp256
S'Founders Centennial IPA Can'
p257
aS'3168'
p258
aF7.0
aI1
aF35.0
aI0
aS'http://res.cloudinary.com/ratebeer/image/upload/w_250,c_limit/beer_3168.jpg'
p259
aa(lp260
S'Blacks Kinsale Black IPA '
p261
aS'236468'
p262
aF5.0
aI1
aF30.0
aI0
aS'http://res.cloudinary.com/ratebeer/image/upload/w_250,c_limit/beer_236468.jpg'
p263
aa(lp264
S'Brooklyn Cuvee Noir '
p265
aS'132633'
p266
aF10.8
aI1
aI7
aI0
aS'http://res.cloudinary.com/ratebeer/image/upload/w_250,c_limit/beer_132633.jpg'
p267
aa(lp268
S'Mikkeller Raspberry Quadrupel'
p269
aS'317889'
p270
aF13.0
aI1
aI7
aI0
aS'http://res.cloudinary.com/ratebeer/image/upload/w_250,c_limit/beer_317889.jpg'
p271
aa(lp272
S'Anchor Brekles Brown '
p273
aS'139388'
p274
aF5.7
aI1
aI7
aI0
aS'http://res.cloudinary.com/ratebeer/image/upload/w_250,c_limit/beer_139388.jpg'
p275
aa(lp276
S'3 Fonteinen Oude Geuze Gold 75'
p277
aS'311168'
p278
aF6.0
aI1
aF0.0
aI0
aS'http://res.cloudinary.com/ratebeer/image/upload/w_250,c_limit/beer_311168.jpg'
p279
aa(lp280
S'Lindemans Cuvee Rene Kriek 750'
p281
aNaF6.0
aI1
aI100
aI0
ag39
aa(lp282
S"Lagunitas Little Sumpin' "
p283
aS'103006'
p284
aF7.5
aI1
aF43.0
aI0
aS'http://res.cloudinary.com/ratebeer/image/upload/w_250,c_limit/beer_103006.jpg'
p285
aa(lp286
S'BAREFOOT BOHEMIAN LAGER '
p287
aS'172470'
p288
aF3.9
aI1
aF30.0
aF1.0
aS'http://res.cloudinary.com/ratebeer/image/upload/w_250,c_limit/beer_172470.jpg'
p289
aa(lp290
S'3 Fonteinen Intense Red '
p291
aS'3210269'
p292
aF6.0
aI1
aI100
aI0
aS'http://res.cloudinary.com/ratebeer/image/upload/w_250,c_limit/beer_3210269.jpg'
p293
aa(lp294
S'Lagunitas Stoopid Wit '
p295
aS'435254'
p296
aF6.2
aI1
aF48.0
aI0
aS'http://res.cloudinary.com/ratebeer/image/upload/w_250,c_limit/beer_435254.jpg'
p297
aa(lp298
S'Lindemans Blossom Geuze '
p299
aS'374575'
p300
aF6.0
aI1
aF35.0
aF7.0
aS'http://res.cloudinary.com/ratebeer/image/upload/w_250,c_limit/beer_374575.jpg'
p301
aa(lp302
S'Brooklyn Local 1 '
p303
aS'170492'
p304
aF9.0
aI1
aI100
aI0
aS'http://res.cloudinary.com/ratebeer/image/upload/w_250,c_limit/beer_170492.jpg'
p305
aa(lp306
S'Lindemans Cuvee Rene Oude Guez'
p307
aS'2010330384'
p308
aF6.0
aI1
aI100
aI0
aS'http://res.cloudinary.com/ratebeer/image/upload/w_250,c_limit/beer_2010330384.jpg'
p309
aa(lp310
S"Birrifico L'Ultima Luna "
p311
aS'118957'
p312
aF13.1
aI1
aI7
aI0
aS'http://res.cloudinary.com/ratebeer/image/upload/w_250,c_limit/beer_118957.jpg'
p313
aa(lp314
S'La Trappe Quadrupel '
p315
aS'4565'
p316
aF10.0
aI1
aI7
aI0
aS'http://res.cloudinary.com/ratebeer/image/upload/w_250,c_limit/beer_4565.jpg'
p317
aa(lp318
S'Brooklyn Lager Can '
p319
aNaF5.2
aI1
aI100
aI0
ag39
aa(lp320
S'EWDOG HARDCORE IPA '
p321
aS'92118721'
p322
aF9.2
aI1
aI100
aI0
aS'http://res.cloudinary.com/ratebeer/image/upload/w_250,c_limit/beer_92118721.jpg'
p323
aa(lp324
S'Founders reDANKulous '
p325
aS'13354786'
p326
aF9.5
aI1
aI100
aI0
aS'http://res.cloudinary.com/ratebeer/image/upload/w_250,c_limit/beer_13354786.jpg'
p327
aa(lp328
S'Fourpure Pale Ale Can '
p329
aS'239274'
p330
aF5.0
aI1
aI100
aI0
aS'http://res.cloudinary.com/ratebeer/image/upload/w_250,c_limit/beer_239274.jpg'
p331
aa(lp332
S"cks Kinsale 'KPA' "
p333
aS'217458'
p334
aF4.9
aI1
aF35.0
aI0
aS'http://res.cloudinary.com/ratebeer/image/upload/w_250,c_limit/beer_217458.jpg'
p335
aa(lp336
S'Anchor Old Foghorn '
p337
aS'4728'
p338
aF9.1
aI1
aI7
aI0
aS'http://res.cloudinary.com/ratebeer/image/upload/w_250,c_limit/beer_4728.jpg'
p339
aa(lp340
S'Mikkeller Black Imperial '
p341
aS'4065783833'
p342
aF15.1
aI1
aI100
aI0
aS'http://res.cloudinary.com/ratebeer/image/upload/w_250,c_limit/beer_4065783833.jpg'
p343
aa(lp344
S'Dupont Biere De Miel Bio '
p345
aS'12383'
p346
aF7.9
aI1
aF0.0
aI0
aS'http://res.cloudinary.com/ratebeer/image/upload/w_250,c_limit/beer_12383.jpg'
p347
aa(lp348
S'3 Fonteinen Oude Kreik '
p349
aS'311175'
p350
aF6.3
aI1
aI7
aI0
aS'http://res.cloudinary.com/ratebeer/image/upload/w_250,c_limit/beer_311175.jpg'
p351
aa(lp352
S'Brooklyn Lager '
p353
aS'528'
p354
aF4.9
aI1
aF37.0
aI0
aS'http://res.cloudinary.com/ratebeer/image/upload/w_250,c_limit/beer_528.jpg'
p355
aa(lp356
S'COPPER COAST RED ALE '
p357
aS'130227'
p358
aF4.2
aI1
aI7
aI0
aS'http://res.cloudinary.com/ratebeer/image/upload/w_250,c_limit/beer_130227.jpg'
p359
aa(lp360
S'Fourpure Skyliner Wheat Summer'
p361
aS'335417'
p362
aF4.7
aI1
aI7
aI0
aS'http://res.cloudinary.com/ratebeer/image/upload/w_250,c_limit/beer_335417.jpg'
p363
aa(lp364
S'COOPERS SPK. ALE '
p365
aNaF5.8
aI1
aI100
aI0
ag39
aa(lp366
S'Founders Rubaeus Can '
p367
aS'46846'
p368
aF5.7
aI1
aF3.0
aI0
aS'http://res.cloudinary.com/ratebeer/image/upload/w_250,c_limit/beer_46846.jpg'
p369
aa(lp370
S'Chimay Doree Goud '
p371
aS'14228'
p372
aF4.7
aI1
aF4.0
aI0
aS'http://res.cloudinary.com/ratebeer/image/upload/w_250,c_limit/beer_14228.jpg'
p373
aa(lp374
S'CHIMAY RED'
p375
aS'51'
p376
aF7.0
aI1
aI7
aI0
aS'http://res.cloudinary.com/ratebeer/image/upload/w_250,c_limit/beer_51.jpg'
p377
aa(lp378
S'Anchor Christmas 2015  '
p379
aS'200552930'
p380
aF5.5
aI1
aI100
aI0
aS'http://res.cloudinary.com/ratebeer/image/upload/w_250,c_limit/beer_200552930.jpg'
p381
aa(lp382
S'Anchor Liberty Ale '
p383
aS'47'
p384
aF5.7
aI1
aF53.0
aI0
aS'http://res.cloudinary.com/ratebeer/image/upload/w_250,c_limit/beer_47.jpg'
p385
aa(lp386
S'Lagunitas Wilco Tango Foxtrot'
p387
aS'117140'
p388
aF7.5
aI1
aF8.0
aI0
aS'http://res.cloudinary.com/ratebeer/image/upload/w_250,c_limit/beer_117140.jpg'
p389
aa(lp390
S'BrewDog Kingpin Lager Can'
p391
aS'420171'
p392
aF4.5
aI1
aF34.0
aI0
aS'http://res.cloudinary.com/ratebeer/image/upload/w_250,c_limit/beer_420171.jpg'
p393
aa(lp394
S'Founders KBS 2016 '
p395
aS'40544'
p396
aF12.6
aI1
aI7
aI0
aS'http://res.cloudinary.com/ratebeer/image/upload/w_250,c_limit/beer_40544.jpg'
p397
aa(lp398
S'BrewDog Restorative Can '
p399
aNaF8.5
aI1
aI100
aI0
ag39
aa(lp400
S'Founders Mosaic Promise '
p401
aS'226680'
p402
aF5.4
aI1
aF55.0
aI0
aS'http://res.cloudinary.com/ratebeer/image/upload/w_250,c_limit/beer_226680.jpg'
p403
aa(lp404
S'Brooklyn Silver Anniversary La'
p405
aS'204873'
p406
aF8.6
aI1
aI7
aI0
aS'http://res.cloudinary.com/ratebeer/image/upload/w_250,c_limit/beer_204873.jpg'
p407
aa(lp408
S'ewDog JackHammer '
p409
aS'178585'
p410
aF6.9
aI1
aF50.0
aI0
aS'http://res.cloudinary.com/ratebeer/image/upload/w_250,c_limit/beer_178585.jpg'
p411
aa(lp412
S'Lindemans Faro '
p413
aS'6376'
p414
aF4.4
aI1
aI7
aF4.0
aS'http://res.cloudinary.com/ratebeer/image/upload/w_250,c_limit/beer_6376.jpg'
p415
aa(lp416
S"Blacks Kinsale 'KPA' Can "
p417
aS'217458'
p418
aF4.9
aI1
aF35.0
aI0
aS'http://res.cloudinary.com/ratebeer/image/upload/w_250,c_limit/beer_217458.jpg'
p419
aa(lp420
S'Lagunitas Censored '
p421
aS'8829'
p422
aF6.5
aI1
aF2.0
aI0
aS'http://res.cloudinary.com/ratebeer/image/upload/w_250,c_limit/beer_8829.jpg'
p423
aa(lp424
S'Beavertown Smog Rocket Can 330'
p425
aS'173662'
p426
aF5.4
aI1
aI7
aI0
aS'http://res.cloudinary.com/ratebeer/image/upload/w_250,c_limit/beer_173662.jpg'
p427
aa(lp428
S'Founders Dirty Bastard '
p429
aS'11498'
p430
aF8.5
aI1
aI7
aI0
aS'http://res.cloudinary.com/ratebeer/image/upload/w_250,c_limit/beer_11498.jpg'
p431
aa(lp432
S'Lagunitas Brown Shugga '
p433
aS'8732'
p434
aF9.9
aI1
aF3.0
aI0
aS'http://res.cloudinary.com/ratebeer/image/upload/w_250,c_limit/beer_8732.jpg'
p435
aa(lp436
S'ewDog Bourbon Baby '
p437
aS'252097'
p438
aF5.9
aI1
aI7
aI0
aS'http://res.cloudinary.com/ratebeer/image/upload/w_250,c_limit/beer_252097.jpg'
p439
aa(lp440
S'Buried At Sea Chocolate Milk S'
p441
aNaF4.5
aI1
aI100
aI0
ag39
aa(lp442
S'COOPERS PALE ALE '
p443
aS'4060'
p444
aF4.1
aI1
aF56.0
aI0
aS'http://res.cloudinary.com/ratebeer/image/upload/w_250,c_limit/beer_4060.jpg'
p445
aa(lp446
S'Brooklyn Intensified Coffee Po'
p447
aNaF11.8
aI1
aI100
aI0
ag39
aa(lp448
S'Lagunitas Aunt Sally '
p449
aS'393630'
p450
aF5.4
aI1
aF62.0
aF3.0
aS'http://res.cloudinary.com/ratebeer/image/upload/w_250,c_limit/beer_393630.jpg'
p451
aa(lp452
S'BrewDog Ship Wreck '
p453
aS'407871'
p454
aF13.6
aI1
aI7
aI0
aS'http://res.cloudinary.com/ratebeer/image/upload/w_250,c_limit/beer_407871.jpg'
p455
aa(lp456
S'Brooklyn East India Pale '
p457
aS'530'
p458
aF6.6
aI1
aF42.0
aI0
aS'http://res.cloudinary.com/ratebeer/image/upload/w_250,c_limit/beer_530.jpg'
p459
aa(lp460
S'Beavertown Black Betty C '
p461
aS'191161'
p462
aF7.4
aI1
aF36.0
aI0
aS'http://res.cloudinary.com/ratebeer/image/upload/w_250,c_limit/beer_191161.jpg'
p463
aa(lp464
S'BUDEJOVICKY BOT '
p465
aNaF5.0
aI1
aI100
aI0
ag39
aa(lp466
S'BrewDog Dead Pony Club '
p467
aS'172207'
p468
aF3.5
aI1
aF40.0
aI0
aS'http://res.cloudinary.com/ratebeer/image/upload/w_250,c_limit/beer_172207.jpg'
p469
aa(lp470
S'CELEBRATION STOUT'
p471
aS'2010145625'
p472
aF7.0
aI1
aI100
aI0
aS'http://res.cloudinary.com/ratebeer/image/upload/w_250,c_limit/beer_2010145625.jpg'
p473
aa(lp474
S'BLACK ROCK STOUT '
p475
aS'128477'
p476
aF4.3
aI1
aI7
aI0
aS'http://res.cloudinary.com/ratebeer/image/upload/w_250,c_limit/beer_128477.jpg'
p477
aa(lp478
S'Brooklyn Wild Streak '
p479
aS'250350'
p480
aF10.0
aI1
aI7
aI0
aS'http://res.cloudinary.com/ratebeer/image/upload/w_250,c_limit/beer_250350.jpg'
p481
aa(lp482
S'Fourpure Session IPA Can '
p483
aS'238308'
p484
aF3.9
aI1
aF34.0
aI0
aS'http://res.cloudinary.com/ratebeer/image/upload/w_250,c_limit/beer_238308.jpg'
p485
aa(lp486
S'Brooklyn Black Chocolate '
p487
aS'531'
p488
aF10.0
aI1
aI7
aI0
aS'http://res.cloudinary.com/ratebeer/image/upload/w_250,c_limit/beer_531.jpg'
p489
aa(lp490
S'Ranke Hop Harvest 2015 750M'
p491
aS'2014295735'
p492
aF6.0
aI1
aI100
aI0
aS'http://res.cloudinary.com/ratebeer/image/upload/w_250,c_limit/beer_2014295735.jpg'
p493
aa(lp494
S'BRAINBLASTA '
p495
aNaF7.0
aI1
aI100
aI0
ag39
aa(lp496
S'Anchor Saison Spring Ale '
p497
aS'254031'
p498
aF7.0
aI1
aF1.0
aI0
aS'http://res.cloudinary.com/ratebeer/image/upload/w_250,c_limit/beer_254031.jpg'
p499
aa(lp500
S'MAY WHITE '
p501
aNaF8.0
aI1
aI100
aI0
ag39
aa(lp502
S'FRANZISKANER HEFE '
p503
aS'1088'
p504
aF4.9
aI1
aI7
aI0
aS'http://res.cloudinary.com/ratebeer/image/upload/w_250,c_limit/beer_1088.jpg'
p505
aa(lp506
S'Metalman Pale Ale Can '
p507
aS'142591'
p508
aF4.1
aI1
aF44.0
aI0
aS'http://res.cloudinary.com/ratebeer/image/upload/w_250,c_limit/beer_142591.jpg'
p509
aa(lp510
S'Beavertown 8 Ball Can '
p511
aS'8173659'
p512
aF6.2
aI1
aI100
aI0
aS'http://res.cloudinary.com/ratebeer/image/upload/w_250,c_limit/beer_8173659.jpg'
p513
aa(lp514
S'Leffe Blonde '
p515
aS'2514'
p516
aF6.5
aI1
aF4.0
aI0
aS'http://res.cloudinary.com/ratebeer/image/upload/w_250,c_limit/beer_2514.jpg'
p517
aa(lp518
S'Founders Rubaeus '
p519
aS'46846'
p520
aF5.7
aI1
aF3.0
aI0
aS'http://res.cloudinary.com/ratebeer/image/upload/w_250,c_limit/beer_46846.jpg'
p521
aa(lp522
S'Anchor Zymaster No. 6 '
p523
aS'6277714'
p524
aF6.0
aI1
aI100
aI0
aS'http://res.cloudinary.com/ratebeer/image/upload/w_250,c_limit/beer_6277714.jpg'
p525
aa(lp526
S'Founders Breakfast Stout '
p527
aS'14956'
p528
aF8.2
aI1
aI7
aI0
aS'http://res.cloudinary.com/ratebeer/image/upload/w_250,c_limit/beer_14956.jpg'
p529
aa(lp530
S'BrewDog Jet Black Heart '
p531
aS'395517'
p532
aF4.7
aI1
aI7
aI0
aS'http://res.cloudinary.com/ratebeer/image/upload/w_250,c_limit/beer_395517.jpg'
p533
aa(lp534
S'Deus '
p535
aNaF11.5
aI1
aI100
aI0
ag39
aa(lp536
S'Dupont Avec Bons Voeux '
p537
aS'11047'
p538
aF9.6
aI1
aF7.0
aI0
aS'http://res.cloudinary.com/ratebeer/image/upload/w_250,c_limit/beer_11047.jpg'
p539
aa(lp540
S'3 Fonteinen Oude Kreik'
p541
aS'311175'
p542
aF5.3
aI1
aI7
aI0
aS'http://res.cloudinary.com/ratebeer/image/upload/w_250,c_limit/beer_311175.jpg'
p543
aa(lp544
S'La Chouffe Houblon Triple IPA'
p545
aS'56757'
p546
aF8.6
aI1
aF37.0
aI0
aS'http://res.cloudinary.com/ratebeer/image/upload/w_250,c_limit/beer_56757.jpg'
p547
aa(lp548
S'Lagunitas Pale Ale '
p549
aS'86876'
p550
aF5.9
aI1
aF51.0
aI0
aS'http://res.cloudinary.com/ratebeer/image/upload/w_250,c_limit/beer_86876.jpg'
p551
aa(lp552
S'Lagunitas Lucky 13 '
p553
aS'1370324'
p554
aF8.8
aI1
aI100
aI0
aS'http://res.cloudinary.com/ratebeer/image/upload/w_250,c_limit/beer_1370324.jpg'
p555
aa(lp556
S'Founders Sumatra Mountain Brow'
p557
aS'135773'
p558
aF8.9
aI1
aI7
aI0
aS'http://res.cloudinary.com/ratebeer/image/upload/w_250,c_limit/beer_135773.jpg'
p559
aa(lp560
S'Beavertown Neck Oil Can 330'
p561
aNaF4.3
aI1
aI100
aI0
ag39
aa(lp562
S'Brooklyn Sorachi  Ace'
p563
aS'107007'
p564
aF7.1
aI1
aF50.0
aI0
aS'http://res.cloudinary.com/ratebeer/image/upload/w_250,c_limit/beer_107007.jpg'
p565
aa(lp566
S'Anchor Steam Beer '
p567
aS'46'
p568
aF4.3
aI1
aF28.0
aI0
aS'http://res.cloudinary.com/ratebeer/image/upload/w_250,c_limit/beer_46.jpg'
p569
aa(lp570
S'BrewDog Vagabond P A '
p571
aS'304469'
p572
aF4.5
aI1
aF6.0
aI0
aS'http://res.cloudinary.com/ratebeer/image/upload/w_250,c_limit/beer_304469.jpg'
p573
aa(lp574
S'Lagunitas The Down Low '
p575
aS'425022'
p576
aF3.9
aI1
aF61.0
aI0
aS'http://res.cloudinary.com/ratebeer/image/upload/w_250,c_limit/beer_425022.jpg'
p577
aa(lp578
S'Beavertown Gamma Ray Can'
p579
aS'189363'
p580
aF5.2
aI1
aF43.0
aI0
aS'http://res.cloudinary.com/ratebeer/image/upload/w_250,c_limit/beer_189363.jpg'
p581
aa(lp582
S'Anderson V Brother David '
p583
aS'34081'
p584
aF10.1
aI1
aF6.0
aI0
aS'http://res.cloudinary.com/ratebeer/image/upload/w_250,c_limit/beer_34081.jpg'
p585
aa(lp586
S'3 Fonteinen Oude Geuze '
p587
aS'311168'
p588
aF6.0
aI1
aF0.0
aI0
aS'http://res.cloudinary.com/ratebeer/image/upload/w_250,c_limit/beer_311168.jpg'
p589
aa(lp590
S'BrewDog Punk IPA Can '
p591
aS'56135361'
p592
aF5.6
aI1
aI100
aI0
aS'http://res.cloudinary.com/ratebeer/image/upload/w_250,c_limit/beer_56135361.jpg'
p593
aa(lp594
S'Blacks Kinsale EquinoxIPA 330M'
p595
aNaF5.5
aI1
aI100
aI0
ag39
aa.