(dp0
VKNOCKMEALDOWN PORTER 
p1
(lp2
F4.8
aF7.0
aI32
aI0
aVhttp://res.cloudinary.com/ratebeer/image/upload/w_250,c_limit/beer_160562.jpg
p3
asVSierra Nevada Pale Ale 
p4
(lp5
F2.1
aF42.0
aI4
aI0
aVhttp://res.cloudinary.com/ratebeer/image/upload/w_250,c_limit/beer_365.jpg
p6
asVSka Brewing Decadent IPA Can
p7
(lp8
F10.0
aF32.0
aI8
aI0
aVhttp://res.cloudinary.com/ratebeer/image/upload/w_250,c_limit/beer_43088.jpg
p9
asVLa Trappe Tripel 
p10
(lp11
F8.0
aF7.0
aI37
aI0
aVhttp://res.cloudinary.com/ratebeer/image/upload/w_250,c_limit/beer_4564.jpg
p12
asVBoon Oude Geuze Black Label
p13
(lp14
F6.0
aF7.0
aI37
aI6
aVhttp://res.cloudinary.com/ratebeer/image/upload/w_250,c_limit/beer_367485.jpg
p15
asVBlacks Kinsale Equinox
p16
(lp17
F5.5
aF100.0
aI5
aI0
aVhttp://media.istockphoto.com/photos/beer-bottle-picture-id175533358?k=6&m=175533358&s=170667a&w=0&h=de2hI2j7Ie8LiNCvkRlS-wwxhChsggEDoX9SDagZnAY=
p18
asVO'HARAS IRISH RED 
p19
(lp20
F2.9
aF1.0
aI37
aI0
aVhttp://res.cloudinary.com/ratebeer/image/upload/w_250,c_limit/beer_44140.jpg
p21
asVLittle Creatures Pale Ale 330M
p22
(lp23
F3.1
aF40.0
aI1
aI0
aVhttp://res.cloudinary.com/ratebeer/image/upload/w_250,c_limit/beer_7658.jpg
p24
asVAnchor Christmas 2015 
p25
(lp26
F5.3
aF7.0
aI1
aI0
aVhttps://2fdltvvn8wp2rn64ywgk8o17-wpengine.netdna-ssl.com/wp-content/uploads/2015/01/anchor-christmas-ale-2014.png
p27
asVSiren Maiden 
p28
(lp29
F10.8
aF7.0
aI1
aI0
aVhttp://i.imgur.com/6a7qzDw.jpg
p30
asVBrewDog Elvis Juice 
p31
(lp32
F6.3
aF7.0
aI1
aI0
aVhttp://i.imgur.com/tY9usyK.jpg
p33
asVOud Beersel Framboise 
p34
(lp35
F3.6
aF7.0
aI1
aI3
aVhttp://res.cloudinary.com/ratebeer/image/upload/w_250,c_limit/beer_49975.jpg
p36
asVPorterhouse Celebration Stout
p37
(lp38
F6.8
aF7.0
aI1
aI0
aVhttp://res.cloudinary.com/ratebeer/image/upload/w_250,c_limit/beer_145625.jpg
p39
asVBirrifico L'Ultima Luna 
p40
(lp41
F14.4
aF7.0
aI1
aI0
aVhttp://lapobbia.com/wp-content/uploads/2013/10/lultima-luna.png
p42
asVKrombacher Pils Can 
p43
(lp44
F2.8
aF33.0
aI1
aI0
aVhttp://res.cloudinary.com/ratebeer/image/upload/w_250,c_limit/beer_3370.jpg
p45
asVSierra Nevada North Harvest
p46
(lp47
F6.7
aF100.0
aI1
aI0
aVhttp://res.cloudinary.com/ratebeer/image/upload/w_250,c_limit/beer_131958.jpg
p48
asVOdells Fernet Aged Porter
p49
(lp50
F9.4
aF7.0
aI1
aI0
aVhttp://www.beersofeurope.co.uk/media/catalog/product/cache/1/image/9df78eab33525d08d6e5fb8d27136e95/pimages/OdellFernetAgedPorter.jpg
p51
asVBrooklyn Blast Ale 
p52
(lp53
F7.7
aF38.0
aI1
aI0
aVhttp://res.cloudinary.com/ratebeer/image/upload/w_250,c_limit/beer_51334.jpg
p54
asVSamuel Adams Boston Lager
p55
(lp56
F2.6
aF31.0
aI1
aI0
aVhttp://res.cloudinary.com/ratebeer/image/upload/w_250,c_limit/beer_158.jpg
p57
asVBzat Kriekenlambiek Oud Beerse
p58
(lp59
F8.0
aF100.0
aI1
aI0
aVhttp://res.cloudinary.com/ratebeer/image/upload/w_250,c_limit/beer_184275.jpg
p60
asVStone Brewing Ruination IPA Ca
p61
(lp62
F7.1
aF47.0
aI1
aI0
aVhttp://res.cloudinary.com/ratebeer/image/upload/w_250,c_limit/beer_14709.jpg
p63
asVMOOSEHEAD 
p64
(lp65
F5.0
aF100.0
aI1
aI0
aVhttp://www.moosehead.de/files/photos/moosehead-de-goodyfood-klaus-kunze-moosehead-lager-large.png
p66
asVSierra Nevada Hoptimum 
p67
(lp68
F10.2
aF39.0
aI1
aI0
aVhttp://res.cloudinary.com/ratebeer/image/upload/w_250,c_limit/beer_117825.jpg
p69
asVWicklow Wolf IPA 
p70
(lp71
F6.4
aF42.0
aI1
aI0
aVhttp://res.cloudinary.com/ratebeer/image/upload/w_250,c_limit/beer_303283.jpg
p72
asVCURIM 
p73
(lp74
F2.7
aF30.0
aI1
aI0
aVhttp://res.cloudinary.com/ratebeer/image/upload/w_250,c_limit/beer_4941.jpg
p75
asVCamden Town IHL Barrel Aged 66
p76
(lp77
F7.3
aF28.0
aI1
aI0
aVhttp://res.cloudinary.com/ratebeer/image/upload/w_250,c_limit/beer_316205.jpg
p78
asVBrooklyn Improved Old Fashione
p79
(lp80
F13.3
aF7.0
aI1
aI0
aVhttp://i.imgur.com/m5H8YVd.jpg
p81
asVSt. Bernardus Tripel 
p82
(lp83
F6.7
aF4.0
aI1
aI0
aVhttp://res.cloudinary.com/ratebeer/image/upload/w_250,c_limit/beer_2528.jpg
p84
asVChapeau Cuvee Oude Geuze 
p85
(lp86
F3.5
aF6.0
aI1
aI7
aVhttp://res.cloudinary.com/ratebeer/image/upload/w_250,c_limit/beer_6241.jpg
p87
asVO'Hara's Double IPA 
p88
(lp89
F5.6
aF31.0
aI1
aI0
aVhttp://res.cloudinary.com/ratebeer/image/upload/w_250,c_limit/beer_204890.jpg
p90
asVLagunitas Equinox 
p91
(lp92
F7.5
aF35.0
aI1
aI0
aVhttps://s-media-cache-ak0.pinimg.com/originals/14/fb/bd/14fbbd3dca6239a9b85ad1b6aaef6977.png
p93
asVLa Trappe Blonde 
p94
(lp95
F5.8
aF7.0
aI1
aI0
aVhttp://res.cloudinary.com/ratebeer/image/upload/w_250,c_limit/beer_10380.jpg
p96
asVBoon Framboise 
p97
(lp98
F5.0
aF7.0
aI1
aI3
aVhttp://res.cloudinary.com/ratebeer/image/upload/w_250,c_limit/beer_4430.jpg
p99
asVOscar Blues Pinner Throwback I
p100
(lp101
F2.2
aF44.0
aI4
aI0
aVhttp://res.cloudinary.com/ratebeer/image/upload/w_250,c_limit/beer_305178.jpg
p102
asVBrewdog Hardcore IPA
p103
(lp104
F9.0
aF7.0
aI1
aI0
aVhttp://res.cloudinary.com/ratebeer/image/upload/w_250,c_limit/beer_118721.jpg
p105
asVBzat Lambiek Oud Beersel 
p106
(lp107
F6.8
aF29.0
aI1
aI7
aVhttp://res.cloudinary.com/ratebeer/image/upload/w_250,c_limit/beer_184275.jpg
p108
asVSierra Nevada Barrel Aged Bigf
p109
(lp110
F13.1
aF7.0
aI1
aI0
aVhttp://res.cloudinary.com/ratebeer/image/upload/w_250,c_limit/beer_65123.jpg
p111
asVDungarvan Mine Head 
p112
(lp113
F5.5
aF100.0
aI1
aI0
aVhttp://dungarvanbrewingcompany.com/wp-content/uploads/2012/10/mine_big.png
p114
asVLeft Hand Wake Up Dead 
p115
(lp116
F9.5
aF7.0
aI1
aI0
aVhttp://lefthandbrewing.com/wp/wp-content/uploads/2013/06/wakeupdead1.png
p117
asVSiren White Tips 
p118
(lp119
F2.3
aF49.0
aI1
aI0
aVhttp://i.imgur.com/CFHyvMI.jpg
p120
asVFourpure Oatmeal Stout
p121
(lp122
F4.9
aF7.0
aI1
aI0
aVhttps://www.beermerchants.com/media/catalog/product/f/o/four_pure_oatmeal_stout.png
p123
asVBrewDog JackHammer Can 
p124
(lp125
F6.3
aF57.0
aI1
aI0
aVhttp://res.cloudinary.com/ratebeer/image/upload/w_250,c_limit/beer_178585.jpg
p126
asVFounders Devil Dancer 
p127
(lp128
F11.6
aF32.0
aI1
aI0
aVhttp://res.cloudinary.com/ratebeer/image/upload/w_250,c_limit/beer_34518.jpg
p129
asVMikkeller Raspberry Trippelboc
p130
(lp131
F13.0
aF15.0
aI7
aI0
aVhttp://res.cloudinary.com/ratebeer/image/upload/w_250,c_limit/beer_317889.jpg
p132
asVThird Circle Samhradh 
p133
(lp134
F4.4
aF5.0
aI1
aI0
aVhttp://media.istockphoto.com/photos/beer-bottle-picture-id175533358?k=6&m=175533358&s=170667a&w=0&h=de2hI2j7Ie8LiNCvkRlS-wwxhChsggEDoX9SDagZnAY=
p135
asVBay Ale Irish Red Ale 
p136
(lp137
F4.3
aF29.0
aI1
aI0
aVhttp://noreast.ie/Content/Images/Beers/galwaybay_bay_ale.jpg
p138
asVCHIMAY BLUE GRANDE RES
p139
(lp140
F8.8
aF7.0
aI1
aI0
aVhttp://res.cloudinary.com/ratebeer/image/upload/w_250,c_limit/beer_53.jpg
p141
asVMikkeller Spontan Cherry 
p142
(lp143
F6.6
aF7.0
aI1
aI4
aVhttp://res.cloudinary.com/ratebeer/image/upload/w_250,c_limit/beer_205607.jpg
p144
asVChimay White
p145
(lp146
F8.0
aF100.0
aI1
aI0
aVhttp://res.cloudinary.com/ratebeer/image/upload/w_250,c_limit/beer_52.jpg
p147
asVKinnegar Brewing Yannaroddy
p148
(lp149
F4.4
aF7.0
aI1
aI0
aVhttp://www.martinsofflicence.ie/cms/images/737x737_p1395749582350_kinnegar_yannaroddy_porter..jpg
p150
asVAnchor Porter 
p151
(lp152
F4.6
aF7.0
aI1
aI0
aVhttp://res.cloudinary.com/ratebeer/image/upload/w_250,c_limit/beer_48.jpg
p153
asVLeft Hand Smokejumper 
p154
(lp155
F7.4
aF7.0
aI1
aI0
aVhttp://res.cloudinary.com/ratebeer/image/upload/w_250,c_limit/beer_65635.jpg
p156
asVBrewDog JackHammer 
p157
(lp158
F6.3
aF57.0
aI6
aI0
aVhttp://res.cloudinary.com/ratebeer/image/upload/w_250,c_limit/beer_178585.jpg
p159
asVBrewDog Cocoa Psycho
p160
(lp161
F10.0
aF7.0
aI1
aI0
aVhttp://www.worldbeerawards.com/media/bottles/23476-120x400.jpg
p162
asVBlackJack Drogheda Cream 
p163
(lp164
F4.6
aF7.0
aI1
aI0
aVhttp://www.martinsofflicence.ie/cms/images/260x510_p1425993781860_jack-codys-black-jack,-drogheda-cream-stout-3.jpg
p165
asVBrewDog 5AM Saint 
p166
(lp167
F4.8
aF7.0
aI1
aI0
aVhttp://beerstore.com.au/wp-content/uploads/2015/10/brewdog-5am-saint-beer-online-1378101233.jpg
p168
asVAsahi 
p169
(lp170
F5.0
aF100.0
aI1
aI0
aVhttp://www.odonovansofflicence.com/wp-content/uploads/2016/03/BEBTASAH5001.jpeg
p171
asVLindemans Cuvee Rene Oude Gueze
p172
(lp173
F5.8
aF7.0
aI1
aI0
aVhttp://www.merchantduvin.com/images/i-lindemans-cuvee-rene-gueuze-lambic.png
p174
asVThornbridge HALL Double Scotch
p175
(lp176
F7.7
aF7.0
aI1
aI0
aVhttp://www.beergonzo.co.uk/pictures/3a90fb6b-b4a2-484c-98d8-bb7b1a0d9c9a.jpg
p177
asVBREWDOG PUNK IPA 
p178
(lp179
F5.4
aF7.0
aI1
aI0
aVhttps://www.shoppersvineyard.com/images/labels/brewdog-punk-ipa.gif
p180
asVBrooklyn Sorachi  Ace
p181
(lp182
F5.6
aF41.0
aI5
aI0
aVhttp://www.beersofeurope.co.uk/media/catalog/product/cache/1/image/9df78eab33525d08d6e5fb8d27136e95/pimages/BrooklynSorachiAce.jpg
p183
asVFounders Centennial IPA 
p184
(lp185
F5.4
aF36.0
aI1
aI0
aVhttp://res.cloudinary.com/ratebeer/image/upload/w_250,c_limit/beer_3168.jpg
p186
asVBoon Geuze 
p187
(lp188
F4.6
aF29.0
aI1
aI6
aVhttp://res.cloudinary.com/ratebeer/image/upload/w_250,c_limit/beer_4631.jpg
p189
asVOdells Footprint 
p190
(lp191
F9.4
aF7.0
aI1
aI0
aVhttp://beerstreetjournal.com/wp-content/uploads/Screen-Shot-2012-01-31-at-12.09.31-PM.png
p192
asVAnchor IPA 
p193
(lp194
F6.5
aF100.0
aI1
aI0
aVhttps://cdn.beeradvocate.com/im/beers/112128.jpg
p195
asVLagunitas IPA 
p196
(lp197
F4.5
aF40.0
aI1
aI0
aVhttp://res.cloudinary.com/ratebeer/image/upload/w_250,c_limit/beer_6887.jpg
p198
asVCHIMAY RED PREMIERE 
p199
(lp200
F6.1
aF7.0
aI1
aI0
aVhttp://res.cloudinary.com/ratebeer/image/upload/w_250,c_limit/beer_51.jpg
p201
asVBrooklyn Monster Ale 
p202
(lp203
F11.1
aF7.0
aI1
aI0
aVhttp://brooklynbrewery.com/system/beers/11_shelf_monsterale_original.png?1421879941
p204
asVLindemans Spontanbasil 750
p205
(lp206
F4.6
aF29.0
aI1
aI4
aVhttp://res.cloudinary.com/ratebeer/image/upload/w_250,c_limit/beer_331545.jpg
p207
asVBrewDog Punk IPA
p208
(lp209
F5.4
aF7.0
aI4
aI0
aVhttps://www.shoppersvineyard.com/images/labels/brewdog-punk-ipa.gif
p210
asVStone Brewing Go To IPA Can 33
p211
(lp212
F3.1
aF68.0
aI1
aI0
aVhttp://res.cloudinary.com/ratebeer/image/upload/w_250,c_limit/beer_253833.jpg
p213
asVBrewDog Black Eyed King Imp 33
p214
(lp215
F13.5
aF7.0
aI1
aI0
aVhttp://res.cloudinary.com/ratebeer/image/upload/w_250,c_limit/beer_369326.jpg
p216
asVBoon Kreik Mariage Parfai
p217
(lp218
F6.7
aF7.0
aI1
aI5
aVhttp://res.cloudinary.com/ratebeer/image/upload/w_250,c_limit/beer_6924.jpg
p219
asVCHIMAY WHITE CINQ CENTS 
p220
(lp221
F6.8
aF6.0
aI1
aI0
aVhttp://res.cloudinary.com/ratebeer/image/upload/w_250,c_limit/beer_52.jpg
p222
asVThornbridge HALL Sour Brown 50
p223
(lp224
F7.1
aF7.0
aI1
aI5
aVhttp://res.cloudinary.com/ratebeer/image/upload/w_250,c_limit/beer_97342.jpg
p225
asVBrooklyn Hand 
p226
(lp227
F14.3
aF7.0
aI1
aI0
aVhttp://brooklynbrewery.com/system/beers/49_shelf_HandSeal-750ml-Website-LR_original.png?1442434934
p228
asVBrooklyn Local 2 
p229
(lp230
F8.7
aF30.0
aI1
aI0
aVhttp://res.cloudinary.com/ratebeer/image/upload/w_250,c_limit/beer_96545.jpg
p231
asVWEIHENSTEPHANER KRISTALL 
p232
(lp233
F2.2
aF7.0
aI1
aI0
aVhttps://m.danmurphys.com.au/media/DM/Product/750x2000/904075_0_9999_v1_m56577569839962019.jpg
p234
asVLa Trappe Dubbel 
p235
(lp236
F6.8
aF7.0
aI1
aI0
aVhttp://res.cloudinary.com/ratebeer/image/upload/w_250,c_limit/beer_4563.jpg
p237
asVBREWDOG TOKYO 
p238
(lp239
F17.2
aF56.0
aI28
aI0
aVhttp://res.cloudinary.com/ratebeer/image/upload/w_250,c_limit/beer_107203.jpg
p240
asVSTAROPRAMEN 
p241
(lp242
F4.8
aF7.0
aI1
aI0
aVhttp://m.beerforum.co.kr/files/attach/images/1434/163/115/05e8aebc5c738d97f642cc960bb94795.jpg
p243
asVFounders Mango Magnifico 
p244
(lp245
F9.8
aF7.0
aI1
aI0
aVhttp://res.cloudinary.com/ratebeer/image/upload/w_250,c_limit/beer_219170.jpg
p246
asVBuried At Sea Chocolate Milk Stout
p247
(lp248
F4.5
aF12.0
aI21
aI0
aVhttps://lh3.googleusercontent.com/ZmuTr5STboTbtjg-MktoJZl3YiXitvEQ1LrPAEtasW4xgevCdmzpFrDvD6-jkYF8-aQK-bbf9V_wtpb-0K95_UY=s350
p249
asVBoon Kriek 
p250
(lp251
F0.8
aF7.0
aI1
aI2
aVhttp://res.cloudinary.com/ratebeer/image/upload/w_250,c_limit/beer_4505.jpg
p252
asVOud Beersel Beersalis Tripel 7
p253
(lp254
F10.3
aF7.0
aI1
aI0
aVhttp://res.cloudinary.com/ratebeer/image/upload/w_250,c_limit/beer_53967.jpg
p255
asVMetalman Heatsink 
p256
(lp257
F4.5
aF7.0
aI1
aI0
aVhttps://www.obrienswine.ie/media/catalog/product/1/5/15B169-Metalman-Heat-Sink-Porter-33cl-Can.png
p258
asVVICTORY STORM KING 
p259
(lp260
F9.1
aF2.0
aI1
aI0
aVhttp://res.cloudinary.com/ratebeer/image/upload/w_250,c_limit/beer_626.jpg
p261
asVFourpure Juicebox Citrus IPA 5
p262
(lp263
F4.4
aF54.0
aI1
aI0
aVhttp://www.martinsofflicence.ie/cms/images/260x510_p1471345856900_fourpure_juicebox_citrus_ipa_can.jpg
p264
asVCHIMAY BLUE 
p265
(lp266
F8.8
aF7.0
aI1
aI0
aVhttp://res.cloudinary.com/ratebeer/image/upload/w_250,c_limit/beer_53.jpg
p267
asVPORTERHOUSE OYSTER STOUT
p268
(lp269
F4.4
aF7.0
aI1
aI0
aVhttp://res.cloudinary.com/ratebeer/image/upload/w_250,c_limit/beer_11379.jpg
p270
asVWEIHENSTEPHANER VITUS 
p271
(lp272
F6.0
aF7.0
aI1
aI0
aVhttp://www.worldbeerawards.com/media/bottles/5382-120x400.jpg
p273
asVFounders Imperial Stout 
p274
(lp275
F10.6
aF7.0
aI1
aI0
aVhttp://res.cloudinary.com/ratebeer/image/upload/w_250,c_limit/beer_5933.jpg
p276
asVBrewDog Nanny State 
p277
(lp278
F0.3
aF7.0
aI1
aI0
aVhttp://www.beersofeurope.co.uk/media/catalog/product/cache/1/image/9df78eab33525d08d6e5fb8d27136e95/pimages/BrewdogNannyState.jpg
p279
asVWhite Gypsy Russian Impy 
p280
(lp281
F6.8
aF7.0
aI1
aI0
aVhttp://media.istockphoto.com/photos/beer-bottle-picture-id175533358?k=6&m=175533358&s=170667a&w=0&h=de2hI2j7Ie8LiNCvkRlS-wwxhChsggEDoX9SDagZnAY=
p282
asVCorona Light
p283
(lp284
F4.6
aF100.0
aI1
aI0
aVhttp://rsvpmagazine.ie/wp-content/uploads/2013/06/Corona-Light.jpg
p285
asVFounders Centennial IPA Can
p286
(lp287
F5.4
aF36.0
aI1
aI0
aVhttp://res.cloudinary.com/ratebeer/image/upload/w_250,c_limit/beer_3168.jpg
p288
asVPeroni Nastro Azzurro 
p289
(lp290
F3.5
aF37.0
aI1
aI0
aVhttp://res.cloudinary.com/ratebeer/image/upload/w_250,c_limit/beer_3029.jpg
p291
asVOscar Blues Old Chub Can 355M
p292
(lp293
F7.1
aF7.0
aI1
aI0
aVhttp://res.cloudinary.com/ratebeer/image/upload/w_250,c_limit/beer_11579.jpg
p294
asVWeihenstephaner Non Alchol 500
p295
(lp296
F-1.2
aF7.0
aI1
aI0
aVhttp://res.cloudinary.com/ratebeer/image/upload/w_250,c_limit/beer_6038.jpg
p297
asVSiren Vanilla Weisse 
p298
(lp299
F2.8
aF7.0
aI1
aI3
aVhttp://i.imgur.com/UC3ZFA5.jpg
p300
asVDupont Avec Bons Voeux 
p301
(lp302
F8.7
aF24.0
aI4
aI0
aVhttp://res.cloudinary.com/ratebeer/image/upload/w_250,c_limit/beer_11047.jpg
p303
asVOdells Trellis Garden Al 
p304
(lp305
F8.3
aF35.0
aI1
aI0
aVhttp://res.cloudinary.com/ratebeer/image/upload/w_250,c_limit/beer_274475.jpg
p306
asVMikkeller Raspberry Quadrupel
p307
(lp308
F12.9
aF7.0
aI1
aI0
aVhttp://res.cloudinary.com/ratebeer/image/upload/w_250,c_limit/beer_317889.jpg
p309
asVSka Brewing Modus Hoperandi Ca
p310
(lp311
F6.2
aF41.0
aI1
aI0
aVhttp://res.cloudinary.com/ratebeer/image/upload/w_250,c_limit/beer_99487.jpg
p312
asVAnchor Brekles Brown 
p313
(lp314
F4.3
aF4.0
aI1
aI0
aVhttp://res.cloudinary.com/ratebeer/image/upload/w_250,c_limit/beer_139388.jpg
p315
asVLindemans Cuvee Rene Kriek 750
p316
(lp317
F5.0
aF0.0
aI1
aI6
aVhttp://res.cloudinary.com/ratebeer/image/upload/w_250,c_limit/beer_72448.jpg
p318
asVLagunitas Little Sumpin' 
p319
(lp320
F5.6
aF35.0
aI1
aI0
aVhttp://res.cloudinary.com/ratebeer/image/upload/w_250,c_limit/beer_103006.jpg
p321
asVTrouble Brewing Dark Arts Port
p322
(lp323
F3.8
aF7.0
aI1
aI0
aVhttp://res.cloudinary.com/ratebeer/image/upload/w_250,c_limit/beer_140325.jpg
p324
asVRochefort 10
p325
(lp326
F11.3
aF100.0
aI1
aI0
aVhttp://res.cloudinary.com/ratebeer/image/upload/w_250,c_limit/beer_2360.jpg
p327
asVWicklow Wolf Black Perle 
p328
(lp329
F4.7
aF7.0
aI1
aI0
aVhttp://www.fourcorners.ie/perch/resources/products/black-perle-porterpw-2.jpg
p330
asVOdells Drumroll APA Can 
p331
(lp332
F3.5
aF49.0
aI1
aI0
aVhttp://i.imgur.com/hFPHPnH.jpg
p333
asV3 Fonteinen Intense Red 
p334
(lp335
F5.8
aF7.0
aI1
aI0
aVhttp://i.imgur.com/G4xfSU4.jpg
p336
asVMikkeller Black Imperial 
p337
(lp338
F15.1
aF100.0
aI1
aI0
aVhttp://res.cloudinary.com/ratebeer/image/upload/w_250,c_limit/beer_83833.jpg
p339
asVLindemans Blossom Geuze 
p340
(lp341
F4.8
aF30.0
aI1
aI5
aVhttps://www.beergium.com/3454-thickbox_default/lindemans-blossom-gueuze-75cl.jpg
p342
asV3 Fonteinen Oude Kreik 
p343
(lp344
F6.3
aF7.0
aI1
aI0
aVhttp://res.cloudinary.com/ratebeer/image/upload/w_250,c_limit/beer_11175.jpg
p345
asVWicklow Wolf Kentucky Com
p346
(lp347
F4.8
aF7.0
aI1
aI1
aVhttps://www.obrienswine.ie/media/catalog/product/1/4/14B123-Wicklow-Wolf-IPA-50cl-Btl.png
p348
asVWEIHENSTEPHANER DUNKEL 
p349
(lp350
F3.9
aF7.0
aI1
aI0
aVhttp://www.beergonzo.co.uk/pictures/1b972403-ad81-4521-875c-f22b5f098063.jpg
p351
asVSierra Nevada Torpedo
p352
(lp353
F7.2
aF100.0
aI1
aI0
aVhttp://res.cloudinary.com/ratebeer/image/upload/w_250,c_limit/beer_59261.jpg
p354
asVFourpure Session IPA
p355
(lp356
F1.3
aF49.0
aI1
aI0
aVhttps://www.beermerchants.com/media/catalog/product/f/o/four_pure_session_ipa.png
p357
asVOdells Runoff Red Ale 
p358
(lp359
F4.4
aF33.0
aI1
aI0
aVhttp://thefullpint.com/wp-content/uploads/2013/12/odell-runoff-red-ipa-bottle.jpg
p360
asVWEIHENSTEPHANER HEFE 
p361
(lp362
F2.2
aF7.0
aI1
aI0
aVhttp://res.cloudinary.com/ratebeer/image/upload/w_250,c_limit/beer_1156.jpg
p363
asVLa Trappe Quadrupel 
p364
(lp365
F10.0
aF7.0
aI1
aI0
aVhttp://res.cloudinary.com/ratebeer/image/upload/w_250,c_limit/beer_4565.jpg
p366
asVSUNBURNT RED ALE 
p367
(lp368
F3.7
aF6.0
aI1
aI0
aVhttp://res.cloudinary.com/ratebeer/image/upload/w_250,c_limit/beer_154054.jpg
p369
asVOdells Friek 
p370
(lp371
F8.4
aF7.0
aI1
aI5
aVhttp://res.cloudinary.com/ratebeer/image/upload/w_250,c_limit/beer_113162.jpg
p372
asVMaisel 
p373
(lp374
F6.9
aF7.0
aI1
aI0
aVhttp://res.cloudinary.com/ratebeer/image/upload/w_250,c_limit/beer_185853.jpg
p375
asVSierra Nevada Ruthless Ry
p376
(lp377
F5.8
aF40.0
aI1
aI0
aVhttp://res.cloudinary.com/ratebeer/image/upload/w_250,c_limit/beer_159987.jpg
p378
asVSpencer Trappist Ale 
p379
(lp380
F5.2
aF0.0
aI1
aI0
aVhttp://res.cloudinary.com/ratebeer/image/upload/w_250,c_limit/beer_241569.jpg
p381
asVFounders reDANKulous 
p382
(lp383
F9.3
aF7.0
aI1
aI0
aVhttp://media.istockphoto.com/photos/beer-bottle-picture-id175533358?k=6&m=175533358&s=170667a&w=0&h=de2hI2j7Ie8LiNCvkRlS-wwxhChsggEDoX9SDagZnAY=
p384
asVOBrother The Sinner IPA 
p385
(lp386
F6.1
aF38.0
aI1
aI0
aVhttps://cdn.shopify.com/s/files/1/0286/4636/products/15B178-O-Brother-Brewing-Sinner-IPA-50cl-Bottle.png?v=1480078363
p387
asVFourpure Pale Ale Can 
p388
(lp389
F5.0
aF100.0
aI4
aI0
aVhttp://www.pivovarorders.co.uk/user/products/large/fourpure%20american%20pale%20ale%20CAN.jpg
p390
asVcks Kinsale 'KPA' 
p391
(lp392
F4.0
aF47.0
aI1
aI0
aVhttp://res.cloudinary.com/ratebeer/image/upload/w_250,c_limit/beer_217458.jpg
p393
asVSierra Nevada Pale Ale Can 473
p394
(lp395
F2.1
aF42.0
aI1
aI0
aVhttp://res.cloudinary.com/ratebeer/image/upload/w_250,c_limit/beer_365.jpg
p396
asVBrewDog Kingpin Lager
p397
(lp398
F2.9
aF29.0
aI1
aI0
aVhttp://www.beersofeurope.co.uk/media/catalog/product/cache/1/image/9df78eab33525d08d6e5fb8d27136e95/pimages/BrewdogKingpin.jpg
p399
asVAnchor Old Foghorn 
p400
(lp401
F9.5
aF7.0
aI1
aI0
aVhttp://res.cloudinary.com/ratebeer/image/upload/w_250,c_limit/beer_4728.jpg
p402
asVSchorsch Bock ICE 30 
p403
(lp404
F29.8
aF7.0
aI1
aI0
aVhttp://biershop.bierpost.com/Media/Thumbs/0003/0003527-schorschbock-ice-30-mit-30-033l-300.gif
p405
asVRascal's Yankee White IPA 
p406
(lp407
F4.8
aF39.0
aI1
aI0
aVhttp://www.martinsofflicence.ie/cms/images/260x510_p1455027156120_rascals_yankee_white_ipa.jpg
p408
asVDupont Biere De Miel Bio 
p409
(lp410
F6.7
aF8.0
aI3
aI0
aVhttp://res.cloudinary.com/ratebeer/image/upload/w_250,c_limit/beer_12383.jpg
p411
asVO'HARAS STOUT 
p412
(lp413
F4.1
aF100.0
aI1
aI0
aVhttp://res.cloudinary.com/ratebeer/image/upload/w_250,c_limit/beer_5830.jpg
p414
asVWhite Hag IPA 
p415
(lp416
F7.2
aF100.0
aI1
aI0
aVhttps://cdn.shopify.com/s/files/1/0286/4636/products/white_hag.jpg?v=1422444987
p417
asVSierra Nevada Hop Hunter 355
p418
(lp419
F6.2
aF100.0
aI1
aI0
aVhttp://res.cloudinary.com/ratebeer/image/upload/w_250,c_limit/beer_250957.jpg
p420
asVBrooklyn Silver Anniversary Lager
p421
(lp422
F8.8
aF7.0
aI1
aI0
aVhttp://res.cloudinary.com/ratebeer/image/upload/w_250,c_limit/beer_204873.jpg
p423
asVBrooklyn Lager 
p424
(lp425
F3.1
aF32.0
aI1
aI0
aVhttp://res.cloudinary.com/ratebeer/image/upload/w_250,c_limit/beer_528.jpg
p426
asVStone Barrel Brewing Boom IPA
p427
(lp428
F4.8
aF33.0
aI1
aI0
aVhttp://www.martinsofflicence.ie/cms/images/260x510_p1391086297922_stone-barrel-boom-session-ipa-2.jpg
p429
asVSierra Nevada Nooner Can
p430
(lp431
F2.0
aF41.0
aI1
aI0
aVhttp://res.cloudinary.com/ratebeer/image/upload/w_250,c_limit/beer_307541.jpg
p432
asVCOPPER COAST RED ALE 
p433
(lp434
F4.1
aF7.0
aI1
aI0
aVhttp://dungarvanbrewingcompany.com/wp-content/uploads/2012/10/copper_big1.png
p435
asVBudvar
p436
(lp437
F5.0
aF100.0
aI1
aI0
aVhttp://res.cloudinary.com/ratebeer/image/upload/w_250,c_limit/beer_1316.jpg
p438
asVPuck Pilsner 
p439
(lp440
F4.4
aF0.0
aI1
aI0
aVhttps://www.obrienswine.ie/media/catalog/product/1/5/15B083-Jack-Cody_s-Puck-Pilsner-50cl-Bottle.png
p441
asVOBrother The Fixer Red Ale
p442
(lp443
F5.4
aF36.0
aI1
aI0
aVhttp://www.martinsofflicence.ie/cms/images/260x510_p1472032953577_o-brother-brewing-fixer-amber-ale.jpg
p444
asVFourpure Skyliner Wheat Summer
p445
(lp446
F3.1
aF43.0
aI1
aI0
aVhttps://assets.londonist.com/uploads/2016/05/i730/four.jpg
p447
asVCOOPERS SPK. ALE 
p448
(lp449
F5.8
aF100.0
aI1
aI0
aVhttp://mrliquor.com.au/ma4/images/stories/virtuemart/product/COOPERS_SPK_ALE__51103402ae61d.jpg
p450
asVhenstephaner Original Helle
p451
(lp452
F1.5
aF28.0
aI1
aI0
aVhttp://cdn6.bigcommerce.com/s-fuwlhuh/products/357/images/619/Weihenstephaner_Original_Helles_new__37535.1437385886.490.588.png?c=2
p453
asVOud Beersel Schaarbeekse Oude
p454
(lp455
F6.8
aF1.0
aI1
aI7
aVhttp://res.cloudinary.com/ratebeer/image/upload/w_250,c_limit/beer_409938.jpg
p456
asVFounders Rubaeus Can 
p457
(lp458
F3.7
aF7.0
aI1
aI0
aVhttp://res.cloudinary.com/ratebeer/image/upload/w_250,c_limit/beer_46846.jpg
p459
asVChimay Doree Goud 
p460
(lp461
F3.3
aF4.0
aI1
aI0
aVhttp://res.cloudinary.com/ratebeer/image/upload/w_250,c_limit/beer_14228.jpg
p462
asVCHIMAY RED
p463
(lp464
F6.1
aF7.0
aI1
aI0
aVhttp://res.cloudinary.com/ratebeer/image/upload/w_250,c_limit/beer_51.jpg
p465
asVAnchor Christmas 2015  
p466
(lp467
F5.3
aF7.0
aI1
aI0
aVhttps://2fdltvvn8wp2rn64ywgk8o17-wpengine.netdna-ssl.com/wp-content/uploads/2015/01/anchor-christmas-ale-2014.png
p468
asVSt. Bernardus Abt 12 
p469
(lp470
F10.4
aF32.0
aI1
aI0
aVhttp://res.cloudinary.com/ratebeer/image/upload/w_250,c_limit/beer_2530.jpg
p471
asVWicklow Wolf American Amber
p472
(lp473
F4.5
aF29.0
aI1
aI0
aVhttp://www.fourcorners.ie/perch/resources/products/american-amberpw-2.jpg
p474
asVBrooklyn Local 1
p475
(lp476
F8.8
aF7.0
aI1
aI0
aVhttp://www.omega-level.net/wp-content/uploads/2010/02/Brooklyn-Local-1.jpg
p477
asVLagunitas Wilco Tango Foxtrot
p478
(lp479
F6.9
aF8.0
aI1
aI0
aVhttp://res.cloudinary.com/ratebeer/image/upload/w_250,c_limit/beer_117140.jpg
p480
asVFounders Porter 
p481
(lp482
F5.5
aF7.0
aI1
aI0
aVhttp://res.cloudinary.com/ratebeer/image/upload/w_250,c_limit/beer_3173.jpg
p483
asVFounders KBS 2016 
p484
(lp485
F13.2
aF7.0
aI1
aI0
aVhttp://res.cloudinary.com/ratebeer/image/upload/w_250,c_limit/beer_40544.jpg
p486
asVFounders Dirty Bastard 
p487
(lp488
F8.7
aF45.0
aI6
aI0
aVhttp://res.cloudinary.com/ratebeer/image/upload/w_250,c_limit/beer_11498.jpg
p489
asVOud Beersel Green Walnut 
p490
(lp491
F5.3
aF6.0
aI4
aI6
aVhttp://res.cloudinary.com/ratebeer/image/upload/w_250,c_limit/beer_348368.jpg
p492
asVBeavertown 8 Ball
p493
(lp494
F6.0
aF78.0
aI6
aI0
aVhttp://www.cavedirect.com/img/db/product-large/beavertown-8-ball-cave-direct.jpg
p495
asVBrooklyn K is for Kriek
p496
(lp497
F9.8
aF7.0
aI6
aI3
aVhttp://www.fourcorners.ie/perch/resources/other/k-is-for-kriek-hr.png
p498
asVBrooklyn Lager
p499
(lp500
F5.2
aF33.0
aI4
aI0
aVhttp://res.cloudinary.com/ratebeer/image/upload/w_120,c_limit/beer_528.jpg
p501
asVBrewDog Restorative Can 
p502
(lp503
F8.5
aF100.0
aI5
aI0
aVhttp://cdn2.bigcommerce.com/server2400/0294a/products/5215/images/5970/Brewdog_Restorative_Beverage__94811.1473857983.1280.1280.jpg?c=2
p504
asVBarefoot Bohemian Lager
p505
(lp506
F3.5
aF15.0
aI2
aI0
aVhttp://www.beersofeurope.co.uk/media/catalog/product/cache/1/image/9df78eab33525d08d6e5fb8d27136e95/pimages/EightdegreesBarefootBohemian.jpg
p507
asVLindemans Faro 
p508
(lp509
F3.9
aF7.0
aI14
aI4
aVhttp://res.cloudinary.com/ratebeer/image/upload/w_250,c_limit/beer_6376.jpg
p510
asVO'Haras Notorious Red IPA
p511
(lp512
F4.5
aF35.0
aI6
aI0
aVhttps://www.obrienswine.ie/media/catalog/product/1/6/16B030-O_Haras-Notorious-Red-IPA-50cl-Bottle.png
p513
asVBlacks Kinsale 'KPA' Can 
p514
(lp515
F4.0
aF47.0
aI3
aI0
aVhttp://res.cloudinary.com/ratebeer/image/upload/w_250,c_limit/beer_217458.jpg
p516
asVLagunitas Censored 
p517
(lp518
F4.9
aF5.0
aI5
aI0
aVhttp://res.cloudinary.com/ratebeer/image/upload/w_250,c_limit/beer_8829.jpg
p519
asVO'Hara's Imperial Stout 
p520
(lp521
F9.8
aF15.0
aI34
aI0
aVhttp://www.martinsofflicence.ie/cms/images/260x510_p1459254599946_oharas_imperial_stout_20th_anniversary.jpg
p522
asVBeavertown Smog Rocket Can 330
p523
(lp524
F3.8
aF68.0
aI23
aI0
aVhttps://www.beermerchants.com/media/catalog/product/cache/1/image/x400/17f82f742ffe127f42dca9de82fb58b1/b/e/beavertown_smog_rocket_2.png
p525
asVRascal's Wunderbar IPA
p526
(lp527
F5.7
aF32.0
aI3
aI0
aVhttp://www.martinsofflicence.ie/cms/images/260x510_p1469807501849_wunderbar_render.jpg
p528
asVLagunitas Brown Shugga 
p529
(lp530
F9.6
aF43.0
aI16
aI0
aVhttp://res.cloudinary.com/ratebeer/image/upload/w_250,c_limit/beer_8732.jpg
p531
asVPORTERHOUSE RED 
p532
(lp533
F3.3
aF20.0
aI7
aI0
aVhttp://res.cloudinary.com/ratebeer/image/upload/w_250,c_limit/beer_11376.jpg
p534
asVWhite Gypsy Doppelbock 
p535
(lp536
F7.4
aF7.0
aI16
aI0
aVhttp://www.martinsofflicence.ie/cms/images/260x510_p1371558542122_23463666.jpg
p537
asVOscar Blues Dales Pale Ale
p538
(lp539
F4.7
aF37.0
aI3
aI0
aVhttp://res.cloudinary.com/ratebeer/image/upload/w_250,c_limit/beer_11576.jpg
p540
asVFounders Mosaic Promise 
p541
(lp542
F4.0
aF52.034
aI4
aI0
aVhttp://res.cloudinary.com/ratebeer/image/upload/w_250,c_limit/beer_226680.jpg
p543
asVFounders Sumatra Mountain Brow
p544
(lp545
F8.7
aF7.0
aI8
aI0
aVhttp://res.cloudinary.com/ratebeer/image/upload/w_250,c_limit/beer_135773.jpg
p546
asVSpaten Lager
p547
(lp548
F5.2
aF14.0
aI3
aI0
aVhttp://lakebeverage.com/wp-content/uploads/2015/03/Spaten-Premium-Lager.png
p549
asVCOOPERS PALE ALE 
p550
(lp551
F3.2
aF34.0
aI5
aI0
aVhttp://res.cloudinary.com/ratebeer/image/upload/w_250,c_limit/beer_4060.jpg
p552
asVBrewDog Bourbon Baby 
p553
(lp554
F5.0
aF7.0
aI11
aI0
aVhttp://res.cloudinary.com/ratebeer/image/upload/w_250,c_limit/beer_252097.jpg
p555
asVBrooklyn Intensified Coffee Po
p556
(lp557
F11.8
aF32.0
aI24
aI0
aVhttps://decrescente.net/images/suppliers/brooklyn-brewery/brooklyn-intensified-coffee-porter/intensified-coffee-porter-bottle-lg.png
p558
asVLagunitas Aunt Sally 
p559
(lp560
F3.4
aF40.0
aI1
aI4
aVhttps://lagunitas.com/u/img/beer-images/aunt-sally/Aunt-Sally-Lagunitas-12oz-Bottle.png
p561
asVBrewDog Ship Wreck 
p562
(lp563
F14.5
aF24.0
aI20
aI0
aVhttp://www.beersofeurope.co.uk/media/catalog/product/cache/1/image/9df78eab33525d08d6e5fb8d27136e95/pimages/BrewdogShipWreck.jpg
p564
asVOdells St. Lupulin
p565
(lp566
F3.9
aF48.0
aI3
aI0
aVhttp://www.martinsofflicence.ie/cms/images/260x510_p1472133158777_st_lupulin_extra_pale_ale_can.jpg
p567
asVBrooklyn East India Pale 
p568
(lp569
F5.2
aF35.0
aI4
aI0
aVhttp://res.cloudinary.com/ratebeer/image/upload/w_250,c_limit/beer_530.jpg
p570
asVOBrother The Chancer APA 
p571
(lp572
F5.3
aF38.0
aI4
aI0
aVhttps://www.obrienswine.ie/media/catalog/product/1/5/15B180-O-Brother-Brewing-Chancer-APA-50cl-Bottle.png
p573
asVBeavertown Black Betty C 
p574
(lp575
F6.2
aF34.0
aI1
aI0
aVhttp://res.cloudinary.com/ratebeer/image/upload/w_250,c_limit/beer_191161.jpg
p576
asVTRIPEL KARMELIET 
p577
(lp578
F7.0
aF7.0
aI1
aI0
aVhttp://res.cloudinary.com/ratebeer/image/upload/w_250,c_limit/beer_5368.jpg
p579
asVStone Arrogant Bastard
p580
(lp581
F7.2
aF100.0
aI4
aI0
aVhttp://stonesalesmaterials.com/wp-content/uploads/2014/09/2014_BourbonABA_bottle_Web.png
p582
asVSierra Nevada Pale Ale Can 355
p583
(lp584
F2.1
aF42.0
aI4
aI0
aVhttp://res.cloudinary.com/ratebeer/image/upload/w_250,c_limit/beer_365.jpg
p585
asVSierra Nevada Porter 
p586
(lp587
F4.4
aF34.0
aI34
aI0
aVhttp://res.cloudinary.com/ratebeer/image/upload/w_250,c_limit/beer_366.jpg
p588
asVBlacks Kinsale Black IPA 
p589
(lp590
F4.9
aF31.0
aI1
aI0
aVhttp://res.cloudinary.com/ratebeer/image/upload/w_250,c_limit/beer_236468.jpg
p591
asVBrooklyn Cuvee Noir 
p592
(lp593
F10.9
aF7.0
aI1
aI0
aVhttp://brooklynbrewery.com/system/beers/44_shelf_CuveeNoire-750ml-LR_original.png?1442434954
p594
asVBLACK ROCK STOUT 
p595
(lp596
F3.6
aF24.0
aI33
aI0
aVhttp://res.cloudinary.com/ratebeer/image/upload/w_250,c_limit/beer_128477.jpg
p597
asVBrooklyn Wild Streak 
p598
(lp599
F9.4
aF36.0
aI8
aI3
aVhttp://res.cloudinary.com/ratebeer/image/upload/w_250,c_limit/beer_250350.jpg
p600
asVOdells The Meddler 
p601
(lp602
F7.8
aF7.0
aI1
aI6
aVhttp://res.cloudinary.com/ratebeer/image/upload/w_250,c_limit/beer_185267.jpg
p603
asVBrooklyn Black Chocolate 
p604
(lp605
F9.1
aF7.0
aI1
aI0
aVhttp://res.cloudinary.com/ratebeer/image/upload/w_250,c_limit/beer_531.jpg
p606
asVSiren Pompelmocello 
p607
(lp608
F3.4
aF47.0
aI1
aI3
aVhttps://www.beermerchants.com/media/catalog/product/s/i/siren_pompelmocello.png
p609
asVBRAINBLASTA 
p610
(lp611
F7.0
aF10.0
aI11
aI0
aVhttp://cdn.shopify.com/s/files/1/0286/4636/products/PorterhouseBrainblasta_grande.jpg?v=1403865154
p612
asVAnchor Saison Spring Ale 
p613
(lp614
F6.0
aF7.0
aI1
aI0
aVhttp://www.beersofeurope.co.uk/media/catalog/product/cache/1/image/9df78eab33525d08d6e5fb8d27136e95/pimages/AnchorSaisonSpringAle.jpg
p615
asVSierra Nevada Bigfoot 2015 350
p616
(lp617
F10.0
aF20.0
aI18
aI0
aVhttp://res.cloudinary.com/ratebeer/image/upload/w_250,c_limit/beer_371.jpg
p618
asVAecht Schlenkerla Weizen 
p619
(lp620
F3.6
aF7.0
aI5
aI0
aVhttp://res.cloudinary.com/ratebeer/image/upload/w_250,c_limit/beer_8565.jpg
p621
asVWhiplash Rollover Session IPA
p622
(lp623
F3.6
aF47.0
aI3
aI0
aVhttp://res.cloudinary.com/ratebeer/image/upload/w_250,c_limit/beer_412929.jpg
p624
asVSka Brewing Rudie Session IPA
p625
(lp626
F1.5
aF41.0
aI5
aI0
aVhttp://res.cloudinary.com/ratebeer/image/upload/w_250,c_limit/beer_280927.jpg
p627
asVFRANZISKANER HEFE 
p628
(lp629
F2.6
aF7.0
aI5
aI0
aVhttp://res.cloudinary.com/ratebeer/image/upload/w_250,c_limit/beer_1088.jpg
p630
asVSchneider Tap X Maries Rendezv
p631
(lp632
F8.4
aF8.0
aI3
aI0
aVhttp://res.cloudinary.com/ratebeer/image/upload/w_250,c_limit/beer_398355.jpg
p633
asVYeastie Boys Digital IPA 
p634
(lp635
F5.5
aF55.0
aI4
aI0
aVhttp://www.nectar.net/productimages/YEA003%20Yeastie%20Boys%20Digital%20IPA.jpg
p636
asVLeffe Blonde 
p637
(lp638
F5.6
aF16.0
aI3
aI0
aVhttp://res.cloudinary.com/ratebeer/image/upload/w_250,c_limit/beer_2514.jpg
p639
asVFounders Rubaeus 
p640
(lp641
F3.7
aF26.0
aI6
aI0
aVhttp://res.cloudinary.com/ratebeer/image/upload/w_250,c_limit/beer_46846.jpg
p642
asVOscar Blues Mama's Little Yell
p643
(lp644
F2.7
aF38.0
aI3
aI0
aVhttp://1.bp.blogspot.com/-IVe8S-HOOjg/VS24Xe9LbQI/AAAAAAAAiPo/XYp4d-aOvTo/s1600/mama's%2Blittle%2Byella%2Bpils%2Boskar%2Bblues.png
p645
asVLagunitas Stoopid Wit 
p646
(lp647
F4.7
aF42.0
aI2
aI0
aVhttp://res.cloudinary.com/ratebeer/image/upload/w_250,c_limit/beer_435254.jpg
p648
asVBeoir Chorca Cul Dorcha
p649
(lp650
F4.8
aF15.0
aI40
aI0
aVhttp://www.martinsofflicence.ie/cms/images/260x510_p1389718576762_west-kerry-cul-dorcha.jpg
p651
asVBirrifico Verdi Black Jack
p652
(lp653
F9.8
aF15.0
aI16
aI0
aVhttp://res.cloudinary.com/ratebeer/image/upload/w_120,c_limit/beer_124259.jpg
p654
asVBrewDog Dead Pony Club
p655
(lp656
F3.8
aF45.0
aI3
aI0
aVhttp://res.cloudinary.com/ratebeer/image/upload/w_250,c_limit/beer_172207.jpg
p657
asVLa Chouffe Houblon Triple IPA
p658
(lp659
F7.6
aF37.0
aI5
aI0
aVhttp://res.cloudinary.com/ratebeer/image/upload/w_250,c_limit/beer_56757.jpg
p660
asVO'Haras Hop Adventure 
p661
(lp662
F5.0
aF68.0
aI4
aI0
aVhttp://www.martinsofflicence.ie/cms/images/260x510_p1437398797618_o%E2%80%99hara%E2%80%99s-hop-adventure-sorachi-ace.jpg
p663
asVFounders Breakfast Stout 
p664
(lp665
F8.0
aF7.0
aI28
aI0
aVhttp://res.cloudinary.com/ratebeer/image/upload/w_250,c_limit/beer_14956.jpg
p666
asVBrewDog Jet Black Heart 
p667
(lp668
F4.1
aF7.0
aI35
aI0
aVhttp://res.cloudinary.com/ratebeer/image/upload/w_250,c_limit/beer_395517.jpg
p669
asVWESTMALLE DUBBEL 
p670
(lp671
F6.4
aF15.0
aI16
aI0
aVhttp://res.cloudinary.com/ratebeer/image/upload/w_250,c_limit/beer_2205.jpg
p672
asVDeus 
p673
(lp674
F11.5
aF30.0
aI6
aI0
aVhttp://res.cloudinary.com/ratebeer/image/upload/w_250,c_limit/beer_18912.jpg
p675
asVStormy Port Irish Porter 
p676
(lp677
F4.4
aF7.0
aI32
aI0
aVhttp://res.cloudinary.com/ratebeer/image/upload/w_250,c_limit/beer_164660.jpg
p678
asVMetalman Equinox 
p679
(lp680
F3.7
aF38.0
aI8
aI0
aVhttp://www.martinsofflicence.ie/cms/images/260x510_p1440510769881_metal-man-2.jpg
p681
asVTrouble Brewing Deception
p682
(lp683
F2.2
aF35.0
aI6
aI0
aVhttp://res.cloudinary.com/ratebeer/image/upload/w_250,c_limit/beer_247307.jpg
p684
asVMetalman Pale Ale
p685
(lp686
F2.8
aF48.0
aI4
aI0
aVhttp://www.fourcorners.ie/perch/resources/other/metalman-pale-ale.png
p687
asVRanke Hop Harvest 2015
p688
(lp689
F5.8
aF35.0
aI4
aI0
aVhttp://res.cloudinary.com/ratebeer/image/upload/w_250,c_limit/beer_189698.jpg
p690
asVBrewDog Sink The Bismark 
p691
(lp692
F43.1
aF29.0
aI7
aI0
aVhttp://beerstore.com.au/wp-content/uploads/2015/10/brew-dog-sink-bismark-beer-online-1369618023.jpg
p693
asVAnchor Zymaster No. 6 
p694
(lp695
F5.8
aF20.0
aI5
aI0
aVhttps://s-media-cache-ak0.pinimg.com/236x/72/4c/6a/724c6a75be9eff71bca6ba68cb854eee.jpg
p696
asVOscar Blues Pinner Passion Fruit
p697
(lp698
F2.7
aF46.0
aI4
aI0
aVhttp://www.oakbarrel.com.au/images/products/lg_3447.jpg
p699
asVSam Adams Rebel IPA 
p700
(lp701
F5.2
aF40.0
aI3
aI0
aVhttp://res.cloudinary.com/ratebeer/image/upload/w_250,c_limit/beer_222791.jpg
p702
asVPORTERHOUSE PLAIN 
p703
(lp704
F3.1
aF7.0
aI1
aI0
aVhttp://www.theporterhouse.ie/images/beers/bottle-plain.png
p705
asVLagunitas Lucky 13 
p706
(lp707
F8.6
aF7.0
aI1
aI0
aVhttps://lagunitas.com/u/img/beer-images/lucky13/Lucky-13-Lagunitas-12-oz-Bottle.png
p708
asVStone IPA Can 
p709
(lp710
F4.9
aF46.0
aI1
aI0
aVhttp://res.cloudinary.com/ratebeer/image/upload/w_250,c_limit/beer_422.jpg
p711
asVRodenbach Grand Cru 
p712
(lp713
F5.0
aF7.0
aI1
aI5
aVhttp://res.cloudinary.com/ratebeer/image/upload/w_250,c_limit/beer_1194.jpg
p714
asVBeavertown Neck Oil Can 330
p715
(lp716
F4.3
aF89.0
aI1
aI0
aVhttp://res.cloudinary.com/ratebeer/image/upload/w_250,c_limit/beer_230018.jpg
p717
asVThornbridge Eldon 
p718
(lp719
F7.1
aF7.0
aI32
aI0
aVhttp://www.pivovarorders.co.uk/user/products/large/ELDON%20BOTTLE.png
p720
asVWhite Hag Wit 
p721
(lp722
F3.9
aF32.0
aI7
aI0
aVhttp://www.beersofeurope.co.uk/media/catalog/product/cache/1/image/9df78eab33525d08d6e5fb8d27136e95/pimages/TheWhiteHagRedDoe.jpg
p723
asVAnchor Liberty Ale 
p724
(lp725
F4.5
aF43.0
aI4
aI0
aVhttp://res.cloudinary.com/ratebeer/image/upload/w_250,c_limit/beer_47.jpg
p726
asVTrouble Brewing Sabotage IPA
p727
(lp728
F5.1
aF36.0
aI5
aI0
aVhttp://www.martinsofflicence.ie/cms/images/708x708_p1374748070442_trouble_brewing_sabotage_india_pale_ale.jpg
p729
asVOdell's Lugene Choco Milk Stou
p730
(lp731
F7.0
aF14.0
aI28
aI0
aVhttp://res.cloudinary.com/ratebeer/image/upload/w_250,c_limit/beer_194215.jpg
p732
asVOud Beersel Oude Kriek 
p733
(lp734
F5.8
aF3.0
aI6
aI6
aVhttp://res.cloudinary.com/ratebeer/image/upload/w_250,c_limit/beer_10908.jpg
p735
asVLagunitas Pale Ale 
p736
(lp737
F3.5
aF48.0
aI5
aI0
aVhttp://res.cloudinary.com/ratebeer/image/upload/w_250,c_limit/beer_86876.jpg
p738
asVSierra Nevada Torpedo 
p739
(lp740
F6.7
aF62.0
aI4
aI0
aVhttp://res.cloudinary.com/ratebeer/image/upload/w_250,c_limit/beer_59261.jpg
p741
asVAnchor Steam Beer 
p742
(lp743
F1.9
aF29.0
aI1
aI0
aVhttp://res.cloudinary.com/ratebeer/image/upload/w_250,c_limit/beer_46.jpg
p744
asVVeltins Pilsner 
p745
(lp746
F3.2
aF16.0
aI2
aI0
aVhttp://res.cloudinary.com/ratebeer/image/upload/w_250,c_limit/beer_4040.jpg
p747
asVThornbridge Jaipur 
p748
(lp749
F3.2
aF49.0
aI1
aI0
aVhttp://res.cloudinary.com/ratebeer/image/upload/w_250,c_limit/beer_48795.jpg
p750
asVWESTMALLE TRIPEL 
p751
(lp752
F8.6
aF12.0
aI3
aI0
aVhttp://res.cloudinary.com/ratebeer/image/upload/w_250,c_limit/beer_2204.jpg
p753
asVRascal's Big Hop Red Can 
p754
(lp755
F5.0
aF31.0
aI7
aI0
aVhttp://www.martinsofflicence.ie/cms/images/260x510_p1455027698855_rascals_big_hop_red.jpg
p756
asVO'Hara's Leann Follain 
p757
(lp758
F8.7
aF7.0
aI1
aI0
aVhttp://www.beersofeurope.co.uk/media/catalog/product/cache/1/image/9df78eab33525d08d6e5fb8d27136e95/pimages/OharasLeannFollain.jpg
p759
asVOud Beersel Oude Geuze 
p760
(lp761
F5.0
aF31.0
aI3
aI6
aVhttp://res.cloudinary.com/ratebeer/image/upload/w_250,c_limit/beer_10907.jpg
p762
asVBrewDog Vagabond P A 
p763
(lp764
F1.7
aF38.0
aI4
aI0
aVhttp://res.cloudinary.com/ratebeer/image/upload/w_250,c_limit/beer_304469.jpg
p765
asVLagunitas The Down Low 
p766
(lp767
F3.3
aF52.0
aI5
aI0
aVhttps://lagunitas.com/u/img/beer-images/downlow/DownLow_Web.png
p768
asVBeavertown Gamma Ray Can
p769
(lp770
F2.4
aF51.0
aI5
aI0
aVhttp://res.cloudinary.com/ratebeer/image/upload/w_250,c_limit/beer_189363.jpg
p771
asVOscar Blues G'Knight 
p772
(lp773
F6.6
aF7.0
aI9
aI0
aVhttp://extras.mnginteractive.com/live/media/site21/2011/0114/20110114__15dcaoskw~2.jpg
p774
asVO'HARAS LEANN FOLLAIN 
p775
(lp776
F5.2
aF7.0
aI24
aI0
aVhttp://res.cloudinary.com/ratebeer/image/upload/w_250,c_limit/beer_100788.jpg
p777
asVStone Brewing Cali
p778
(lp779
F6.1
aF70.0
aI4
aI0
aVhttp://res.cloudinary.com/ratebeer/image/upload/w_250,c_limit/beer_87480.jpg
p780
asV3 Fonteinen Oude Geuze 
p781
(lp782
F6.0
aF7.0
aI1
aI0
aVhttp://res.cloudinary.com/ratebeer/image/upload/w_250,c_limit/beer_11168.jpg
p783
asVSka Brewing Modus Mandarina 35
p784
(lp785
F6.2
aF54.0
aI3
aI0
aVhttp://res.cloudinary.com/ratebeer/image/upload/w_250,c_limit/beer_260630.jpg
p786
asVO'HARAS IRISH PALE ALE 
p787
(lp788
F3.9
aF41.0
aI3
aI0
aVhttp://res.cloudinary.com/ratebeer/image/upload/w_250,c_limit/beer_126380.jpg
p789
asVAnderson V Brother David 
p790
(lp791
F10.4
aF7.0
aI1
aI0
aVhttp://res.cloudinary.com/ratebeer/image/upload/w_250,c_limit/beer_34081.jpg
p792
as.