(dp0
V3 Fonteinen Oude Geuze
p1
(lp2
F6.0
aF7.0
aI1
aI0
aVhttp://res.cloudinary.com/ratebeer/image/upload/w_250,c_limit/beer_311168.jpg
p3
asVKNOCKMEALDOWN PORTER 
p4
(lp5
F4.8
aF7.0
aI32
aI0
aVhttp://res.cloudinary.com/ratebeer/image/upload/w_250,c_limit/beer_160562.jpg
p6
asVMikkeller Black Imperial 
p7
(lp8
F15.1
aF100.0
aI1
aI0
aVhttp://res.cloudinary.com/ratebeer/image/upload/w_250,c_limit/beer_83833.jpg
p9
asVLa Trappe Tripel 
p10
(lp11
F8.0
aF7.0
aI37
aI0
aVhttp://res.cloudinary.com/ratebeer/image/upload/w_250,c_limit/beer_4564.jpg
p12
asVBoon Oude Geuze Black Label
p13
(lp14
F6.0
aF7.0
aI37
aI6
aVhttp://res.cloudinary.com/ratebeer/image/upload/w_250,c_limit/beer_367485.jpg
p15
asVBlacks Kinsale Equinox
p16
(lp17
F5.5
aF100.0
aI1
aI0
aVhttps://www.irelandcraftbeers.com/uploads/images/products/thumb_blacks-of-kinsale-rocket-ship-ipa_20151118203701.png
p18
asVO'HARAS IRISH RED 
p19
(lp20
F2.9
aF1.0
aI37
aI0
aVhttp://res.cloudinary.com/ratebeer/image/upload/w_250,c_limit/beer_44140.jpg
p21
asVLittle Creatures Pale Ale 330M
p22
(lp23
F3.1
aF40.0
aI1
aI0
aVhttp://res.cloudinary.com/ratebeer/image/upload/w_250,c_limit/beer_7658.jpg
p24
asVSierra Nevada North Harve
p25
(lp26
F6.7
aF100.0
aI1
aI0
aVimage not found
p27
asVFourpure Oatmeal Stout
p28
(lp29
F4.9
aF7.0
aI1
aI0
aVhttps://www.beermerchants.com/media/catalog/product/f/o/four_pure_oatmeal_stout.png
p30
asVBrewDog Elvis Juice 
p31
(lp32
F6.3
aF7.0
aI1
aI0
aVhttp://res.cloudinary.com/ratebeer/image/upload/w_250,c_limit/beer_2016388589.jpg
p33
asVOud Beersel Framboise 
p34
(lp35
F3.6
aF7.0
aI1
aI3
aVhttp://res.cloudinary.com/ratebeer/image/upload/w_250,c_limit/beer_49975.jpg
p36
asVPorterhouse Celebration Stout
p37
(lp38
F6.8
aF7.0
aI1
aI0
aVhttp://res.cloudinary.com/ratebeer/image/upload/w_250,c_limit/beer_145625.jpg
p39
asVDupont Biere De Miel Bio 
p40
(lp41
F6.7
aF0.0
aI1
aI0
aVhttp://res.cloudinary.com/ratebeer/image/upload/w_250,c_limit/beer_12383.jpg
p42
asVOdells Fernet Aged Porter
p43
(lp44
F9.4
aF7.0
aI1
aI0
aVhttp://res.cloudinary.com/ratebeer/image/upload/w_250,c_limit/beer_175738.jpg
p45
asVBrooklyn Blast Ale 
p46
(lp47
F7.7
aF38.0
aI1
aI0
aVhttp://res.cloudinary.com/ratebeer/image/upload/w_250,c_limit/beer_51334.jpg
p48
asVSamuel Adams Boston Lager
p49
(lp50
F2.6
aF31.0
aI1
aI0
aVhttp://res.cloudinary.com/ratebeer/image/upload/w_250,c_limit/beer_158.jpg
p51
asVBzat Kriekenlambiek Oud Beerse
p52
(lp53
F8.0
aF100.0
aI1
aI0
aVimage not found
p54
asVMetalman Equinox Can 
p55
(lp56
F3.7
aF38.0
aI1
aI0
aVhttp://res.cloudinary.com/ratebeer/image/upload/w_250,c_limit/beer_206033.jpg
p57
asVStone Brewing Ruination IPA Ca
p58
(lp59
F7.1
aF47.0
aI1
aI0
aVhttp://res.cloudinary.com/ratebeer/image/upload/w_250,c_limit/beer_14709.jpg
p60
asVMOOSEHEAD 
p61
(lp62
F5.0
aF100.0
aI1
aI0
aVimage not found
p63
asVStone Brewing Go To IPA Can 33
p64
(lp65
F3.1
aF68.0
aI1
aI0
aVhttp://res.cloudinary.com/ratebeer/image/upload/w_250,c_limit/beer_253833.jpg
p66
asVBirrifico Verdi Black Jack 330
p67
(lp68
F9.8
aF7.0
aI1
aI0
aVhttp://res.cloudinary.com/ratebeer/image/upload/w_250,c_limit/beer_12425921.jpg
p69
asVSierra Nevada Hoptimum 
p70
(lp71
F10.2
aF39.0
aI1
aI0
aVhttp://res.cloudinary.com/ratebeer/image/upload/w_250,c_limit/beer_117825.jpg
p72
asVWicklow Wolf IPA 
p73
(lp74
F6.4
aF42.0
aI1
aI0
aVhttp://res.cloudinary.com/ratebeer/image/upload/w_250,c_limit/beer_303283.jpg
p75
asVCURIM 
p76
(lp77
F2.7
aF30.0
aI1
aI0
aVhttp://res.cloudinary.com/ratebeer/image/upload/w_250,c_limit/beer_4941.jpg
p78
asVCamden Town IHL Barrel Aged 66
p79
(lp80
F7.3
aF28.0
aI1
aI0
aVhttp://res.cloudinary.com/ratebeer/image/upload/w_250,c_limit/beer_316205.jpg
p81
asVBrooklyn Improved Old Fashione
p82
(lp83
F13.3
aF7.0
aI1
aI0
aVhttp://res.cloudinary.com/ratebeer/image/upload/w_250,c_limit/beer_398364.jpg
p84
asV3 Fonteinen Oude Geuze 
p85
(lp86
F6.0
aF7.0
aI1
aI0
aVhttp://res.cloudinary.com/ratebeer/image/upload/w_250,c_limit/beer_11168.jpg
p87
asVMikkeller Spontan Cherry 
p88
(lp89
F6.6
aF7.0
aI1
aI4
aVhttp://res.cloudinary.com/ratebeer/image/upload/w_250,c_limit/beer_205607.jpg
p90
asVSt. Bernardus Tripel 
p91
(lp92
F6.7
aF4.0
aI1
aI0
aVhttp://res.cloudinary.com/ratebeer/image/upload/w_250,c_limit/beer_2528.jpg
p93
asVChapeau Cuvee Oude Geuze 
p94
(lp95
F3.5
aF6.0
aI1
aI7
aVhttp://res.cloudinary.com/ratebeer/image/upload/w_250,c_limit/beer_6241.jpg
p96
asVO'Hara's Double IPA 
p97
(lp98
F5.6
aF31.0
aI1
aI0
aVhttp://res.cloudinary.com/ratebeer/image/upload/w_250,c_limit/beer_204890.jpg
p99
asVLa Chouffe Houblon Triple IPA
p100
(lp101
F7.6
aF38.0
aI1
aI0
aVhttp://res.cloudinary.com/ratebeer/image/upload/w_250,c_limit/beer_56757.jpg
p102
asVLagunitas Equinox 
p103
(lp104
F7.5
aF35.0
aI1
aI0
aVhttp://res.cloudinary.com/ratebeer/image/upload/w_250,c_limit/beer_8219.jpg
p105
asVLa Trappe Blonde 
p106
(lp107
F5.8
aF7.0
aI1
aI0
aVhttp://res.cloudinary.com/ratebeer/image/upload/w_250,c_limit/beer_10380.jpg
p108
asVBoon Framboise 
p109
(lp110
F5.0
aF7.0
aI1
aI3
aVhttp://res.cloudinary.com/ratebeer/image/upload/w_250,c_limit/beer_4430.jpg
p111
asVOdells St. Lupulin Can 
p112
(lp113
F3.9
aF48.0
aI1
aI0
aVhttp://res.cloudinary.com/ratebeer/image/upload/w_250,c_limit/beer_104413.jpg
p114
asVOscar Blues Pinner Throwback I
p115
(lp116
F2.2
aF44.0
aI1
aI0
aVhttp://res.cloudinary.com/ratebeer/image/upload/w_250,c_limit/beer_305178.jpg
p117
asVBrewdog Hardcore IPA
p118
(lp119
F9.0
aF7.0
aI1
aI0
aVhttp://res.cloudinary.com/ratebeer/image/upload/w_250,c_limit/beer_118721.jpg
p120
asVBzat Lambiek Oud Beersel 
p121
(lp122
F6.8
aF29.0
aI1
aI7
aVhttp://res.cloudinary.com/ratebeer/image/upload/w_250,c_limit/beer_23561.jpg
p123
asVSierra Nevada Barrel Aged Bigf
p124
(lp125
F13.1
aF7.0
aI1
aI0
aVhttp://res.cloudinary.com/ratebeer/image/upload/w_250,c_limit/beer_65123.jpg
p126
asVDungarvan Mine Head 
p127
(lp128
F5.5
aF100.0
aI1
aI0
aVhttp://dungarvanbrewingcompany.com/wp-content/uploads/2012/10/mine_big.png
p129
asVLeft Hand Wake Up Dead 
p130
(lp131
F9.5
aF7.0
aI1
aI0
aVhttp://res.cloudinary.com/ratebeer/image/upload/w_250,c_limit/beer_429.jpg
p132
asVSiren White Tips 
p133
(lp134
F2.3
aF49.0
aI1
aI0
aVhttp://res.cloudinary.com/ratebeer/image/upload/w_250,c_limit/beer_264635.jpg
p135
asVSpaten Lager
p136
(lp137
F5.2
aF100.0
aI1
aI0
aVhttp://lakebeverage.com/wp-content/uploads/2015/03/Spaten-Premium-Lager.png
p138
asVBrewDog JackHammer Can 
p139
(lp140
F6.3
aF57.0
aI1
aI0
aVhttp://res.cloudinary.com/ratebeer/image/upload/w_250,c_limit/beer_178585.jpg
p141
asVFounders Devil Dancer 
p142
(lp143
F11.6
aF32.0
aI1
aI0
aVhttp://res.cloudinary.com/ratebeer/image/upload/w_250,c_limit/beer_34518.jpg
p144
asVSierra Nevada Torpedo Can 473M
p145
(lp146
F7.2
aF100.0
aI1
aI0
aVimage not found
p147
asVThird Circle Samhradh 
p148
(lp149
F4.4
aF5.0
aI1
aI0
aVhttp://media.istockphoto.com/photos/beer-bottle-picture-id175533358?k=6&m=175533358&s=170667a&w=0&h=de2hI2j7Ie8LiNCvkRlS-wwxhChsggEDoX9SDagZnAY=
p150
asVBay Ale Irish Red Ale 
p151
(lp152
F4.3
aF29.0
aI1
aI0
aVhttp://res.cloudinary.com/ratebeer/image/upload/w_250,c_limit/beer_375824.jpg
p153
asVCHIMAY BLUE GRANDE RES
p154
(lp155
F8.8
aF7.0
aI1
aI0
aVhttp://res.cloudinary.com/ratebeer/image/upload/w_250,c_limit/beer_53.jpg
p156
asVCORONA 
p157
(lp158
F4.6
aF100.0
aI1
aI0
aVimage not found
p159
asVRascal's Yankee White IPA Can
p160
(lp161
F4.8
aF39.0
aI1
aI0
aVhttp://res.cloudinary.com/ratebeer/image/upload/w_250,c_limit/beer_345994.jpg
p162
asVChimay White
p163
(lp164
F8.0
aF100.0
aI1
aI0
aVhttp://res.cloudinary.com/ratebeer/image/upload/w_250,c_limit/beer_52.jpg
p165
asVKinnegar Brewing Yannaroddy
p166
(lp167
F4.4
aF7.0
aI1
aI0
aVhttp://res.cloudinary.com/ratebeer/image/upload/w_250,c_limit/beer_240804.jpg
p168
asVRascal's Wunderbar IPA Can 330
p169
(lp170
F5.7
aF32.0
aI1
aI0
aVhttp://res.cloudinary.com/ratebeer/image/upload/w_250,c_limit/beer_333361.jpg
p171
asVSka Brewing Decadent IPA Can
p172
(lp173
F10.0
aF32.0
aI8
aI0
aVhttp://res.cloudinary.com/ratebeer/image/upload/w_250,c_limit/beer_43088.jpg
p174
asVLeft Hand Smokejumper 
p175
(lp176
F7.4
aF7.0
aI1
aI0
aVhttp://res.cloudinary.com/ratebeer/image/upload/w_250,c_limit/beer_65635.jpg
p177
asVSchneider Tap X Maries Rendezv
p178
(lp179
F8.4
aF7.0
aI1
aI0
aVhttp://res.cloudinary.com/ratebeer/image/upload/w_250,c_limit/beer_398355.jpg
p180
asVBrewDog Cocoa Psycho
p181
(lp182
F10.0
aF7.0
aI1
aI0
aVhttp://res.cloudinary.com/ratebeer/image/upload/w_250,c_limit/beer_194513.jpg
p183
asVBlackJack Drogheda Cream 
p184
(lp185
F4.6
aF7.0
aI1
aI0
aVhttp://res.cloudinary.com/ratebeer/image/upload/w_250,c_limit/beer_314862.jpg
p186
asVBrewDog 5AM Saint 
p187
(lp188
F4.8
aF7.0
aI1
aI0
aVhttp://res.cloudinary.com/ratebeer/image/upload/w_250,c_limit/beer_5107269.jpg
p189
asVAsahi 
p190
(lp191
F5.0
aF100.0
aI1
aI0
aVimage not found
p192
asVLindemans Cuvee Rene Oude Gueze
p193
(lp194
F5.8
aF7.0
aI1
aI0
aVhttp://www.merchantduvin.com/images/i-lindemans-cuvee-rene-gueuze-lambic.png
p195
asVBrewDog Sink The Bismark 375M
p196
(lp197
F43.1
aF29.0
aI1
aI0
aVhttp://res.cloudinary.com/ratebeer/image/upload/w_250,c_limit/beer_118414.jpg
p198
asVBREWDOG PUNK IPA 
p199
(lp200
F5.4
aF7.0
aI1
aI0
aVhttp://res.cloudinary.com/ratebeer/image/upload/w_250,c_limit/beer_56135361.jpg
p201
asVFounders Centennial IPA 
p202
(lp203
F5.4
aF36.0
aI1
aI0
aVhttp://res.cloudinary.com/ratebeer/image/upload/w_250,c_limit/beer_3168.jpg
p204
asVBoon Geuze 
p205
(lp206
F4.6
aF29.0
aI1
aI6
aVhttp://res.cloudinary.com/ratebeer/image/upload/w_250,c_limit/beer_4631.jpg
p207
asVBeoir Chorca Cul Dorcha 500M
p208
(lp209
F4.8
aF7.0
aI1
aI0
aVhttp://res.cloudinary.com/ratebeer/image/upload/w_250,c_limit/beer_15799331.jpg
p210
asVOdells Footprint 
p211
(lp212
F9.4
aF7.0
aI1
aI0
aVhttp://res.cloudinary.com/ratebeer/image/upload/w_250,c_limit/beer_2014268106.jpg
p213
asVAnchor IPA 
p214
(lp215
F6.5
aF100.0
aI1
aI0
aVimage not found
p216
asVLagunitas IPA 
p217
(lp218
F4.5
aF40.0
aI1
aI0
aVhttp://res.cloudinary.com/ratebeer/image/upload/w_250,c_limit/beer_6887.jpg
p219
asVCHIMAY RED PREMIERE 
p220
(lp221
F6.1
aF7.0
aI1
aI0
aVhttp://res.cloudinary.com/ratebeer/image/upload/w_250,c_limit/beer_51.jpg
p222
asVLagunitas Aunt Sally 
p223
(lp224
F3.4
aF40.0
aI1
aI4
aVhttps://lagunitas.com/u/img/beer-images/aunt-sally/Aunt-Sally-Lagunitas-12oz-Bottle.png
p225
asVBrooklyn Monster Ale 
p226
(lp227
F11.1
aF7.0
aI1
aI0
aVhttp://brooklynbrewery.com/system/beers/11_shelf_monsterale_original.png?1421879941
p228
asVLindemans Spontanbasil 750
p229
(lp230
F4.6
aF29.0
aI1
aI4
aVhttp://res.cloudinary.com/ratebeer/image/upload/w_250,c_limit/beer_331545.jpg
p231
asVFounders Porter 
p232
(lp233
F5.5
aF7.0
aI1
aI0
aVhttp://res.cloudinary.com/ratebeer/image/upload/w_250,c_limit/beer_3173.jpg
p234
asVBrewDog Black Eyed King Imp 33
p235
(lp236
F13.5
aF7.0
aI1
aI0
aVhttp://res.cloudinary.com/ratebeer/image/upload/w_250,c_limit/beer_369326.jpg
p237
asVBoon Kreik Mariage Parfai
p238
(lp239
F6.7
aF7.0
aI1
aI5
aVhttp://res.cloudinary.com/ratebeer/image/upload/w_250,c_limit/beer_6924.jpg
p240
asVCHIMAY WHITE CINQ CENTS 
p241
(lp242
F6.8
aF6.0
aI1
aI0
aVhttp://res.cloudinary.com/ratebeer/image/upload/w_250,c_limit/beer_52.jpg
p243
asVThornbridge HALL Sour Brown 50
p244
(lp245
F7.1
aF7.0
aI1
aI5
aVhttp://res.cloudinary.com/ratebeer/image/upload/w_250,c_limit/beer_97342.jpg
p246
asVBrooklyn Hand 
p247
(lp248
F14.3
aF7.0
aI1
aI0
aVhttp://brooklynbrewery.com/system/beers/49_shelf_HandSeal-750ml-Website-LR_original.png?1442434934
p249
asVBrooklyn Local 2 
p250
(lp251
F8.7
aF30.0
aI1
aI0
aVhttp://res.cloudinary.com/ratebeer/image/upload/w_250,c_limit/beer_96545.jpg
p252
asVWEIHENSTEPHANER KRISTALL 
p253
(lp254
F2.2
aF7.0
aI1
aI0
aVhttps://m.danmurphys.com.au/media/DM/Product/750x2000/904075_0_9999_v1_m56577569839962019.jpg
p255
asVLa Trappe Dubbel 
p256
(lp257
F6.8
aF7.0
aI1
aI0
aVhttp://res.cloudinary.com/ratebeer/image/upload/w_250,c_limit/beer_4563.jpg
p258
asVBeavertown Black Betty C 
p259
(lp260
F6.2
aF34.0
aI1
aI0
aVhttp://res.cloudinary.com/ratebeer/image/upload/w_250,c_limit/beer_191161.jpg
p261
asVSTAROPRAMEN 
p262
(lp263
F4.8
aF7.0
aI1
aI0
aVhttp://res.cloudinary.com/ratebeer/image/upload/w_250,c_limit/beer_123784.jpg
p264
asVFounders Mango Magnifico 
p265
(lp266
F9.8
aF7.0
aI1
aI0
aVhttp://res.cloudinary.com/ratebeer/image/upload/w_250,c_limit/beer_219170.jpg
p267
asVBoon Kriek 
p268
(lp269
F0.8
aF7.0
aI1
aI2
aVhttp://res.cloudinary.com/ratebeer/image/upload/w_250,c_limit/beer_4505.jpg
p270
asVSt. Bernardus Abt 12 Magnum
p271
(lp272
F10.0
aF100.0
aI1
aI0
aVhttp://res.cloudinary.com/ratebeer/image/upload/w_250,c_limit/beer_122016436364.jpg
p273
asVMetalman Heatsink 
p274
(lp275
F4.5
aF7.0
aI1
aI0
aVhttps://www.obrienswine.ie/media/catalog/product/1/5/15B169-Metalman-Heat-Sink-Porter-33cl-Can.png
p276
asVThornbridge HALL Double Scotch
p277
(lp278
F7.7
aF7.0
aI1
aI0
aVhttp://www.beergonzo.co.uk/pictures/3a90fb6b-b4a2-484c-98d8-bb7b1a0d9c9a.jpg
p279
asVFourpure Juicebox Citrus IPA 5
p280
(lp281
F4.4
aF54.0
aI1
aI0
aVhttp://www.martinsofflicence.ie/cms/images/260x510_p1471345856900_fourpure_juicebox_citrus_ipa_can.jpg
p282
asVCHIMAY BLUE 
p283
(lp284
F8.8
aF7.0
aI1
aI0
aVhttp://res.cloudinary.com/ratebeer/image/upload/w_250,c_limit/beer_53.jpg
p285
asVAnchor Steam Beer 
p286
(lp287
F1.9
aF29.0
aI1
aI0
aVhttp://res.cloudinary.com/ratebeer/image/upload/w_250,c_limit/beer_46.jpg
p288
asVPORTERHOUSE OYSTER STOUT
p289
(lp290
F4.4
aF7.0
aI1
aI0
aVhttp://res.cloudinary.com/ratebeer/image/upload/w_250,c_limit/beer_11379.jpg
p291
asVWEIHENSTEPHANER VITUS 
p292
(lp293
F6.0
aF7.0
aI1
aI0
aVhttp://www.worldbeerawards.com/media/bottles/5382-120x400.jpg
p294
asV3 Fonteinen Oude Kreik
p295
(lp296
F5.3
aF7.0
aI1
aI0
aVhttp://res.cloudinary.com/ratebeer/image/upload/w_250,c_limit/beer_311175.jpg
p297
asVFounders Imperial Stout 
p298
(lp299
F10.6
aF7.0
aI1
aI0
aVhttp://res.cloudinary.com/ratebeer/image/upload/w_250,c_limit/beer_5933.jpg
p300
asVBrewDog Nanny State 
p301
(lp302
F0.3
aF7.0
aI1
aI0
aVhttp://www.beersofeurope.co.uk/media/catalog/product/cache/1/image/9df78eab33525d08d6e5fb8d27136e95/pimages/BrewdogNannyState.jpg
p303
asVWhite Gypsy Russian Impy 
p304
(lp305
F6.8
aF7.0
aI1
aI0
aVhttp://media.istockphoto.com/photos/beer-bottle-picture-id175533358?k=6&m=175533358&s=170667a&w=0&h=de2hI2j7Ie8LiNCvkRlS-wwxhChsggEDoX9SDagZnAY=
p306
asVFounders Centennial IPA Can
p307
(lp308
F5.4
aF36.0
aI1
aI0
aVhttp://res.cloudinary.com/ratebeer/image/upload/w_250,c_limit/beer_3168.jpg
p309
asVPeroni Nastro Azzurro 
p310
(lp311
F3.5
aF37.0
aI1
aI0
aVhttp://res.cloudinary.com/ratebeer/image/upload/w_250,c_limit/beer_3029.jpg
p312
asVOscar Blues Old Chub Can 355M
p313
(lp314
F7.1
aF7.0
aI1
aI0
aVhttp://res.cloudinary.com/ratebeer/image/upload/w_250,c_limit/beer_11579.jpg
p315
asVWeihenstephaner Non Alchol 500
p316
(lp317
F-1.2
aF7.0
aI1
aI0
aVhttp://res.cloudinary.com/ratebeer/image/upload/w_250,c_limit/beer_6038.jpg
p318
asVCOOPERS PALE ALE 
p319
(lp320
F3.2
aF34.0
aI1
aI0
aVhttp://res.cloudinary.com/ratebeer/image/upload/w_250,c_limit/beer_4060.jpg
p321
asVSiren Vanilla Weisse 
p322
(lp323
F2.8
aF7.0
aI1
aI3
aVhttp://www.beergonzo.co.uk/pictures/c42af04e-4f47-493e-8ff3-1d5522dad993.jpg
p324
asVOdells Trellis Garden Al 
p325
(lp326
F8.3
aF35.0
aI1
aI0
aVhttp://res.cloudinary.com/ratebeer/image/upload/w_250,c_limit/beer_274475.jpg
p327
asVMikkeller Raspberry Quadrupel
p328
(lp329
F12.9
aF7.0
aI1
aI0
aVhttp://res.cloudinary.com/ratebeer/image/upload/w_250,c_limit/beer_317889.jpg
p330
asVSka Brewing Modus Hoperandi Ca
p331
(lp332
F6.2
aF41.0
aI1
aI0
aVhttp://res.cloudinary.com/ratebeer/image/upload/w_250,c_limit/beer_99487.jpg
p333
asVAnchor Brekles Brown 
p334
(lp335
F4.3
aF4.0
aI1
aI0
aVhttp://res.cloudinary.com/ratebeer/image/upload/w_250,c_limit/beer_139388.jpg
p336
asVLindemans Cuvee Rene Kriek 750
p337
(lp338
F5.0
aF0.0
aI1
aI6
aVhttp://res.cloudinary.com/ratebeer/image/upload/w_250,c_limit/beer_72448.jpg
p339
asVLagunitas Little Sumpin' 
p340
(lp341
F5.6
aF35.0
aI1
aI0
aVhttp://res.cloudinary.com/ratebeer/image/upload/w_250,c_limit/beer_103006.jpg
p342
asVCHIMAY RED
p343
(lp344
F6.1
aF7.0
aI1
aI0
aVhttp://res.cloudinary.com/ratebeer/image/upload/w_250,c_limit/beer_51.jpg
p345
asVRochefort 10
p346
(lp347
F11.3
aF100.0
aI1
aI0
aVhttp://res.cloudinary.com/ratebeer/image/upload/w_250,c_limit/beer_2360.jpg
p348
asVWicklow Wolf Black Perle 
p349
(lp350
F4.7
aF7.0
aI1
aI0
aVhttp://www.fourcorners.ie/perch/resources/products/black-perle-porterpw-2.jpg
p351
asVOdells Drumroll APA Can 
p352
(lp353
F3.5
aF49.0
aI1
aI0
aVhttp://res.cloudinary.com/ratebeer/image/upload/w_250,c_limit/beer_424542.jpg
p354
asV3 Fonteinen Intense Red 
p355
(lp356
F5.8
aF7.0
aI1
aI0
aVhttps://www.beergium.com/3339-big_default/3-fonteinen-intense-red-oude-kriek-75cl.jpg
p357
asVRodenbach Grand Cru 
p358
(lp359
F5.0
aF7.0
aI1
aI5
aVhttp://res.cloudinary.com/ratebeer/image/upload/w_250,c_limit/beer_1194.jpg
p360
asVLindemans Blossom Geuze 
p361
(lp362
F4.8
aF30.0
aI1
aI5
aVhttps://www.beergium.com/3454-thickbox_default/lindemans-blossom-gueuze-75cl.jpg
p363
asV3 Fonteinen Oude Kreik 
p364
(lp365
F6.3
aF7.0
aI1
aI0
aVhttp://res.cloudinary.com/ratebeer/image/upload/w_250,c_limit/beer_311175.jpg
p366
asVWicklow Wolf Kentucky Com
p367
(lp368
F4.8
aF7.0
aI1
aI1
aVhttp://res.cloudinary.com/ratebeer/image/upload/w_250,c_limit/beer_300882.jpg
p369
asVWEIHENSTEPHANER DUNKEL 
p370
(lp371
F3.9
aF7.0
aI1
aI0
aVhttp://res.cloudinary.com/ratebeer/image/upload/w_250,c_limit/beer_4583.jpg
p372
asVSierra Nevada Torpedo
p373
(lp374
F7.2
aF100.0
aI1
aI0
aVhttp://res.cloudinary.com/ratebeer/image/upload/w_250,c_limit/beer_59261.jpg
p375
asVBLACK ROCK STOUT 
p376
(lp377
F3.6
aF7.0
aI1
aI0
aVhttp://res.cloudinary.com/ratebeer/image/upload/w_250,c_limit/beer_128477.jpg
p378
asVOdells The Meddler 
p379
(lp380
F7.8
aF7.0
aI1
aI6
aVhttp://res.cloudinary.com/ratebeer/image/upload/w_250,c_limit/beer_185267.jpg
p381
asVOdells Runoff Red Ale 
p382
(lp383
F4.4
aF33.0
aI1
aI0
aVhttp://thefullpint.com/wp-content/uploads/2013/12/odell-runoff-red-ipa-bottle.jpg
p384
asVWEIHENSTEPHANER HEFE 
p385
(lp386
F2.2
aF7.0
aI1
aI0
aVhttp://res.cloudinary.com/ratebeer/image/upload/w_250,c_limit/beer_1156.jpg
p387
asVLa Trappe Quadrupel 
p388
(lp389
F10.0
aF7.0
aI1
aI0
aVhttp://res.cloudinary.com/ratebeer/image/upload/w_250,c_limit/beer_4565.jpg
p390
asVSUNBURNT RED ALE 
p391
(lp392
F3.7
aF6.0
aI1
aI0
aVhttp://res.cloudinary.com/ratebeer/image/upload/w_250,c_limit/beer_154054.jpg
p393
asVOdells Friek 
p394
(lp395
F8.4
aF7.0
aI1
aI5
aVhttp://res.cloudinary.com/ratebeer/image/upload/w_250,c_limit/beer_113162.jpg
p396
asVMaisel 
p397
(lp398
F6.9
aF7.0
aI1
aI0
aVhttp://res.cloudinary.com/ratebeer/image/upload/w_250,c_limit/beer_185853.jpg
p399
asVSierra Nevada Ruthless Ry
p400
(lp401
F5.8
aF40.0
aI1
aI0
aVhttp://res.cloudinary.com/ratebeer/image/upload/w_250,c_limit/beer_159987.jpg
p402
asVSpencer Trappist Ale 
p403
(lp404
F5.2
aF0.0
aI1
aI0
aVhttp://res.cloudinary.com/ratebeer/image/upload/w_250,c_limit/beer_241569.jpg
p405
asVFounders reDANKulous 
p406
(lp407
F9.3
aF7.0
aI1
aI0
aVhttp://media.istockphoto.com/photos/beer-bottle-picture-id175533358?k=6&m=175533358&s=170667a&w=0&h=de2hI2j7Ie8LiNCvkRlS-wwxhChsggEDoX9SDagZnAY=
p408
asVOBrother The Sinner IPA 
p409
(lp410
F6.1
aF38.0
aI1
aI0
aVhttps://cdn.shopify.com/s/files/1/0286/4636/products/15B178-O-Brother-Brewing-Sinner-IPA-50cl-Bottle.png?v=1480078363
p411
asVBrooklyn Black Chocolate 
p412
(lp413
F9.1
aF7.0
aI1
aI0
aVhttp://res.cloudinary.com/ratebeer/image/upload/w_250,c_limit/beer_531.jpg
p414
asVcks Kinsale 'KPA' 
p415
(lp416
F4.0
aF47.0
aI1
aI0
aVhttp://res.cloudinary.com/ratebeer/image/upload/w_250,c_limit/beer_217458.jpg
p417
asVSierra Nevada Pale Ale Can 473
p418
(lp419
F2.1
aF42.0
aI1
aI0
aVhttp://res.cloudinary.com/ratebeer/image/upload/w_250,c_limit/beer_365.jpg
p420
asVOud Beersel Schaarbeekse Oude
p421
(lp422
F6.8
aF1.0
aI1
aI7
aVhttp://res.cloudinary.com/ratebeer/image/upload/w_250,c_limit/beer_409938.jpg
p423
asVAnchor Old Foghorn 
p424
(lp425
F9.5
aF7.0
aI1
aI0
aVhttp://res.cloudinary.com/ratebeer/image/upload/w_250,c_limit/beer_4728.jpg
p426
asVSchorsch Bock ICE 30 
p427
(lp428
F29.8
aF7.0
aI1
aI0
aVhttp://biershop.bierpost.com/Media/Thumbs/0003/0003527-schorschbock-ice-30-mit-30-033l-300.gif
p429
asVKrombacher Pils Can 
p430
(lp431
F2.8
aF33.0
aI1
aI0
aVhttp://res.cloudinary.com/ratebeer/image/upload/w_250,c_limit/beer_3370.jpg
p432
asVO'HARAS STOUT 
p433
(lp434
F4.1
aF100.0
aI1
aI0
aVhttp://res.cloudinary.com/ratebeer/image/upload/w_250,c_limit/beer_5830.jpg
p435
asVWhite Hag IPA 
p436
(lp437
F7.2
aF100.0
aI1
aI0
aVhttps://cdn.shopify.com/s/files/1/0286/4636/products/white_hag.jpg?v=1422444987
p438
asVSierra Nevada Hop Hunter 355
p439
(lp440
F6.2
aF100.0
aI1
aI0
aVhttp://res.cloudinary.com/ratebeer/image/upload/w_250,c_limit/beer_250957.jpg
p441
asVBrooklyn Silver Anniversary Lager
p442
(lp443
F8.8
aF7.0
aI1
aI0
aVhttp://res.cloudinary.com/ratebeer/image/upload/w_250,c_limit/beer_204873.jpg
p444
asVAnchor Saison Spring Ale 
p445
(lp446
F6.0
aF7.0
aI1
aI0
aVhttp://www.glunzbeers.com/wp-content/uploads/2014/08/ABCSteam12oz033015SH-HR_crop-496x1024.png
p447
asVStone Barrel Brewing Boom IPA
p448
(lp449
F4.8
aF33.0
aI1
aI0
aVhttp://www.martinsofflicence.ie/cms/images/260x510_p1391086297922_stone-barrel-boom-session-ipa-2.jpg
p450
asVSierra Nevada Nooner Can
p451
(lp452
F2.0
aF41.0
aI1
aI0
aVhttp://res.cloudinary.com/ratebeer/image/upload/w_250,c_limit/beer_307541.jpg
p453
asVCOPPER COAST RED ALE 
p454
(lp455
F4.1
aF7.0
aI1
aI0
aVhttp://dungarvanbrewingcompany.com/wp-content/uploads/2012/10/copper_big1.png
p456
asVBudvar
p457
(lp458
F5.0
aF100.0
aI1
aI0
aVhttp://res.cloudinary.com/ratebeer/image/upload/w_250,c_limit/beer_1316.jpg
p459
asVPuck Pilsner 
p460
(lp461
F4.4
aF0.0
aI1
aI0
aVhttps://www.obrienswine.ie/media/catalog/product/1/5/15B083-Jack-Cody_s-Puck-Pilsner-50cl-Bottle.png
p462
asVOBrother The Fixer Red Ale
p463
(lp464
F5.4
aF36.0
aI1
aI0
aVhttp://www.martinsofflicence.ie/cms/images/260x510_p1472032953577_o-brother-brewing-fixer-amber-ale.jpg
p465
asVFourpure Skyliner Wheat Summer
p466
(lp467
F3.1
aF43.0
aI1
aI0
aVhttps://assets.londonist.com/uploads/2016/05/i730/four.jpg
p468
asVCOOPERS SPK. ALE 
p469
(lp470
F5.8
aF100.0
aI1
aI0
aVhttp://mrliquor.com.au/ma4/images/stories/virtuemart/product/COOPERS_SPK_ALE__51103402ae61d.jpg
p471
asVhenstephaner Original Helle
p472
(lp473
F1.5
aF28.0
aI1
aI0
aVhttp://cdn6.bigcommerce.com/s-fuwlhuh/products/357/images/619/Weihenstephaner_Original_Helles_new__37535.1437385886.490.588.png?c=2
p474
asVBirrifico L'Ultima Luna 
p475
(lp476
F14.4
aF7.0
aI1
aI0
aVhttp://lapobbia.com/wp-content/uploads/2013/10/lultima-luna.png
p477
asVFounders Rubaeus Can 
p478
(lp479
F3.7
aF7.0
aI1
aI0
aVhttp://res.cloudinary.com/ratebeer/image/upload/w_250,c_limit/beer_46846.jpg
p480
asVChimay Doree Goud 
p481
(lp482
F3.3
aF4.0
aI1
aI0
aVhttp://res.cloudinary.com/ratebeer/image/upload/w_250,c_limit/beer_14228.jpg
p483
asVTrouble Brewing Dark Arts Port
p484
(lp485
F3.8
aF7.0
aI1
aI0
aVhttp://res.cloudinary.com/ratebeer/image/upload/w_250,c_limit/beer_140325.jpg
p486
asVAnchor Christmas 2015  
p487
(lp488
F5.3
aF7.0
aI1
aI0
aVhttps://2fdltvvn8wp2rn64ywgk8o17-wpengine.netdna-ssl.com/wp-content/uploads/2015/01/anchor-christmas-ale-2014.png
p489
asVSt. Bernardus Abt 12 
p490
(lp491
F10.4
aF32.0
aI1
aI0
aVhttp://res.cloudinary.com/ratebeer/image/upload/w_250,c_limit/beer_2530.jpg
p492
asVWicklow Wolf American Amber
p493
(lp494
F4.5
aF29.0
aI1
aI0
aVhttp://www.fourcorners.ie/perch/resources/products/american-amberpw-2.jpg
p495
asVBrooklyn Local 1
p496
(lp497
F8.8
aF7.0
aI1
aI0
aVhttp://www.omega-level.net/wp-content/uploads/2010/02/Brooklyn-Local-1.jpg
p498
asVLagunitas Wilco Tango Foxtrot
p499
(lp500
F6.9
aF8.0
aI1
aI0
aVhttp://res.cloudinary.com/ratebeer/image/upload/w_250,c_limit/beer_117140.jpg
p501
asVOud Beersel Oude Kriek 
p502
(lp503
F5.8
aF3.0
aI1
aI6
aVhttp://res.cloudinary.com/ratebeer/image/upload/w_250,c_limit/beer_10908.jpg
p504
asVFounders KBS 2016 
p505
(lp506
F13.2
aF7.0
aI1
aI0
aVhttp://res.cloudinary.com/ratebeer/image/upload/w_250,c_limit/beer_40544.jpg
p507
asVBrewDog Restorative Can 
p508
(lp509
F8.5
aF100.0
aI1
aI0
aVhttp://cdn2.bigcommerce.com/server2400/0294a/products/5215/images/5970/Brewdog_Restorative_Beverage__94811.1473857983.1280.1280.jpg?c=2
p510
asVOud Beersel Green Walnut 
p511
(lp512
F5.3
aF6.0
aI1
aI6
aVhttp://res.cloudinary.com/ratebeer/image/upload/w_250,c_limit/beer_348368.jpg
p513
asVBlacks Kinsale Black IPA 
p514
(lp515
F4.9
aF31.0
aI1
aI0
aVhttp://res.cloudinary.com/ratebeer/image/upload/w_250,c_limit/beer_236468.jpg
p516
asVBrooklyn K is for Kriek
p517
(lp518
F9.8
aF7.0
aI1
aI3
aVhttp://res.cloudinary.com/ratebeer/image/upload/w_250,c_limit/beer_313624.jpg
p519
asVewDog JackHammer 
p520
(lp521
F6.3
aF57.0
aI1
aI0
aVhttp://res.cloudinary.com/ratebeer/image/upload/w_250,c_limit/beer_178585.jpg
p522
asVBrooklyn Lager
p523
(lp524
F5.2
aF100.0
aI1
aI0
aVhttp://res.cloudinary.com/ratebeer/image/upload/w_120,c_limit/beer_528.jpg
p525
asVBarefoot Bohemian Lager
p526
(lp527
F3.5
aF32.0
aI1
aI0
aVhttp://www.beersofeurope.co.uk/media/catalog/product/cache/1/image/9df78eab33525d08d6e5fb8d27136e95/pimages/EightdegreesBarefootBohemian.jpg
p528
asVLindemans Faro 
p529
(lp530
F3.9
aF7.0
aI1
aI4
aVhttp://res.cloudinary.com/ratebeer/image/upload/w_250,c_limit/beer_6376.jpg
p531
asVO'Haras Notorious Red IPA
p532
(lp533
F4.5
aF35.0
aI1
aI0
aVhttps://www.obrienswine.ie/media/catalog/product/1/6/16B030-O_Haras-Notorious-Red-IPA-50cl-Bottle.png
p534
asVBlacks Kinsale 'KPA' Can 
p535
(lp536
F4.0
aF47.0
aI1
aI0
aVhttp://res.cloudinary.com/ratebeer/image/upload/w_250,c_limit/beer_217458.jpg
p537
asVLagunitas Censored 
p538
(lp539
F4.9
aF5.0
aI1
aI0
aVhttp://res.cloudinary.com/ratebeer/image/upload/w_250,c_limit/beer_8829.jpg
p540
asVO'Hara's Imperial Stout 
p541
(lp542
F9.8
aF7.0
aI1
aI0
aVhttp://www.martinsofflicence.ie/cms/images/260x510_p1459254599946_oharas_imperial_stout_20th_anniversary.jpg
p543
asVAnchor Porter 
p544
(lp545
F4.6
aF7.0
aI1
aI0
aVhttp://res.cloudinary.com/ratebeer/image/upload/w_250,c_limit/beer_48.jpg
p546
asVFounders Dirty Bastard 
p547
(lp548
F8.7
aF7.0
aI1
aI0
aVhttp://res.cloudinary.com/ratebeer/image/upload/w_250,c_limit/beer_11498.jpg
p549
asVLagunitas Brown Shugga 
p550
(lp551
F9.6
aF0.0
aI1
aI0
aVhttp://res.cloudinary.com/ratebeer/image/upload/w_250,c_limit/beer_8732.jpg
p552
asVPORTERHOUSE RED 
p553
(lp554
F3.3
aF7.0
aI1
aI0
aVhttp://res.cloudinary.com/ratebeer/image/upload/w_250,c_limit/beer_11376.jpg
p555
asVewDog Bourbon Baby 
p556
(lp557
F5.0
aF7.0
aI1
aI0
aVhttp://res.cloudinary.com/ratebeer/image/upload/w_250,c_limit/beer_252097.jpg
p558
asVBrooklyn Cuvee Noir 
p559
(lp560
F10.9
aF7.0
aI1
aI0
aVhttp://brooklynbrewery.com/system/beers/44_shelf_CuveeNoire-750ml-LR_original.png?1442434954
p561
asVOscar Blues Dales Pale Ale
p562
(lp563
F4.7
aF37.0
aI1
aI0
aVhttp://res.cloudinary.com/ratebeer/image/upload/w_250,c_limit/beer_11576.jpg
p564
asVFounders Mosaic Promise 
p565
(lp566
F4.0
aF52.0
aI1
aI0
aVhttp://res.cloudinary.com/ratebeer/image/upload/w_250,c_limit/beer_226680.jpg
p567
asVFounders Sumatra Mountain Brow
p568
(lp569
F8.7
aF7.0
aI1
aI0
aVhttp://res.cloudinary.com/ratebeer/image/upload/w_250,c_limit/beer_135773.jpg
p570
asVAnchor Christmas 2015 
p571
(lp572
F5.3
aF7.0
aI1
aI0
aVhttp://res.cloudinary.com/ratebeer/image/upload/w_250,c_limit/beer_200552930.jpg
p573
asVBrooklyn Intensified Coffee Po
p574
(lp575
F11.8
aF100.0
aI1
aI0
aVhttps://decrescente.net/images/suppliers/brooklyn-brewery/brooklyn-intensified-coffee-porter/intensified-coffee-porter-bottle-lg.png
p576
asVBrewDog Dead Pony Club 
p577
(lp578
F1.3
aF48.0
aI1
aI0
aVhttp://res.cloudinary.com/ratebeer/image/upload/w_250,c_limit/beer_172207.jpg
p579
asVMikkeller Raspberry Trippelboc
p580
(lp581
F13.0
aF7.0
aI1
aI0
aVhttp://res.cloudinary.com/ratebeer/image/upload/w_250,c_limit/beer_317889.jpg
p582
asVBrewDog Ship Wreck 
p583
(lp584
F14.5
aF7.0
aI1
aI0
aVhttp://www.beersofeurope.co.uk/media/catalog/product/cache/1/image/9df78eab33525d08d6e5fb8d27136e95/pimages/BrewdogShipWreck.jpg
p585
asVBrooklyn East India Pale 
p586
(lp587
F5.2
aF35.0
aI1
aI0
aVhttp://res.cloudinary.com/ratebeer/image/upload/w_250,c_limit/beer_530.jpg
p588
asVBREWDOG TOKYO 
p589
(lp590
F17.2
aF7.0
aI1
aI0
aVhttp://res.cloudinary.com/ratebeer/image/upload/w_250,c_limit/beer_107203.jpg
p591
asVBuried At Sea Chocolate Milk Stout
p592
(lp593
F4.5
aF100.0
aI1
aI0
aVhttps://lh3.googleusercontent.com/ZmuTr5STboTbtjg-MktoJZl3YiXitvEQ1LrPAEtasW4xgevCdmzpFrDvD6-jkYF8-aQK-bbf9V_wtpb-0K95_UY=s350
p594
asVStone Arrogant Bastard
p595
(lp596
F7.2
aF100.0
aI1
aI0
aVhttp://stonesalesmaterials.com/wp-content/uploads/2014/09/2014_BourbonABA_bottle_Web.png
p597
asVOud Beersel Oude Geuze 
p598
(lp599
F5.0
aF31.0
aI1
aI6
aVhttp://res.cloudinary.com/ratebeer/image/upload/w_250,c_limit/beer_10907.jpg
p600
asVSierra Nevada Porter 
p601
(lp602
F4.4
aF7.0
aI1
aI0
aVhttp://res.cloudinary.com/ratebeer/image/upload/w_250,c_limit/beer_366.jpg
p603
asVSiren Maiden 2014
p604
(lp605
F10.8
aF7.0
aI1
aI0
aVhttp://res.cloudinary.com/ratebeer/image/upload/w_250,c_limit/beer_2014319421.jpg
p606
asVFourpure Session IPA
p607
(lp608
F1.3
aF49.0
aI1
aI0
aVhttps://www.beermerchants.com/media/catalog/product/f/o/four_pure_session_ipa.png
p609
asVO'Hara's Leann Follain 
p610
(lp611
F8.7
aF7.0
aI1
aI0
aVhttp://www.beersofeurope.co.uk/media/catalog/product/cache/1/image/9df78eab33525d08d6e5fb8d27136e95/pimages/OharasLeannFollain.jpg
p612
asVThornbridge Jaipur 
p613
(lp614
F3.2
aF49.0
aI1
aI0
aVhttp://res.cloudinary.com/ratebeer/image/upload/w_250,c_limit/beer_48795.jpg
p615
asVBrooklyn Wild Streak 
p616
(lp617
F9.4
aF7.0
aI1
aI3
aVhttp://res.cloudinary.com/ratebeer/image/upload/w_250,c_limit/beer_250350.jpg
p618
asVStone Brewing Cali
p619
(lp620
F6.1
aF34.0
aI1
aI0
aVhttp://res.cloudinary.com/ratebeer/image/upload/w_250,c_limit/beer_87480.jpg
p621
asVFourpure Pale Ale Can 
p622
(lp623
F5.0
aF100.0
aI1
aI0
aVhttp://www.pivovarorders.co.uk/user/products/large/fourpure%20american%20pale%20ale%20CAN.jpg
p624
asVSiren Pompelmocello 
p625
(lp626
F3.4
aF47.0
aI1
aI3
aVhttps://www.beermerchants.com/media/catalog/product/s/i/siren_pompelmocello.png
p627
asVBRAINBLASTA 
p628
(lp629
F7.0
aF100.0
aI1
aI0
aVhttp://cdn.shopify.com/s/files/1/0286/4636/products/PorterhouseBrainblasta_grande.jpg?v=1403865154
p630
asVBrooklyn Lager 
p631
(lp632
F3.1
aF32.0
aI1
aI0
aVhttp://res.cloudinary.com/ratebeer/image/upload/w_250,c_limit/beer_528.jpg
p633
asVSierra Nevada Bigfoot 2015 350
p634
(lp635
F10.0
aF7.0
aI1
aI0
aVhttp://res.cloudinary.com/ratebeer/image/upload/w_250,c_limit/beer_371.jpg
p636
asVAecht Schlenkerla Weizen 
p637
(lp638
F3.6
aF7.0
aI1
aI0
aVhttp://res.cloudinary.com/ratebeer/image/upload/w_250,c_limit/beer_8565.jpg
p639
asVWhiplash Rollover Session IPA
p640
(lp641
F3.6
aF47.0
aI1
aI0
aVhttp://res.cloudinary.com/ratebeer/image/upload/w_250,c_limit/beer_412929.jpg
p642
asVSka Brewing Rudie Session IPA
p643
(lp644
F1.5
aF41.0
aI1
aI0
aVhttp://res.cloudinary.com/ratebeer/image/upload/w_250,c_limit/beer_280927.jpg
p645
asVFRANZISKANER HEFE 
p646
(lp647
F2.6
aF7.0
aI1
aI0
aVhttp://res.cloudinary.com/ratebeer/image/upload/w_250,c_limit/beer_1088.jpg
p648
asVTRIPEL KARMELIET 
p649
(lp650
F7.0
aF7.0
aI1
aI0
aVhttp://res.cloudinary.com/ratebeer/image/upload/w_250,c_limit/beer_5368.jpg
p651
asVYeastie Boys Digital IPA 
p652
(lp653
F5.5
aF7.0
aI1
aI0
aVhttp://www.nectar.net/productimages/YEA003%20Yeastie%20Boys%20Digital%20IPA.jpg
p654
asVLeffe Blonde 
p655
(lp656
F5.6
aF7.0
aI1
aI0
aVhttp://res.cloudinary.com/ratebeer/image/upload/w_250,c_limit/beer_2514.jpg
p657
asVFounders Rubaeus 
p658
(lp659
F3.7
aF7.0
aI1
aI0
aVhttp://res.cloudinary.com/ratebeer/image/upload/w_250,c_limit/beer_46846.jpg
p660
asVOscar Blues Mama's Little Yell
p661
(lp662
F2.7
aF38.0
aI1
aI0
aVhttp://1.bp.blogspot.com/-IVe8S-HOOjg/VS24Xe9LbQI/AAAAAAAAiPo/XYp4d-aOvTo/s1600/mama's%2Blittle%2Byella%2Bpils%2Boskar%2Bblues.png
p663
asVTrouble Brewing Deception
p664
(lp665
F2.2
aF35.0
aI1
aI0
aVhttp://res.cloudinary.com/ratebeer/image/upload/w_250,c_limit/beer_247307.jpg
p666
asVAnchor Zymaster No. 6 
p667
(lp668
F5.8
aF7.0
aI1
aI0
aVhttps://s-media-cache-ak0.pinimg.com/236x/72/4c/6a/724c6a75be9eff71bca6ba68cb854eee.jpg
p669
asVO'Haras Hop Adventure 
p670
(lp671
F5.0
aF100.0
aI1
aI0
aVhttp://www.martinsofflicence.ie/cms/images/260x510_p1437398797618_o%E2%80%99hara%E2%80%99s-hop-adventure-sorachi-ace.jpg
p672
asVFounders Breakfast Stout 
p673
(lp674
F8.0
aF7.0
aI1
aI0
aVhttp://res.cloudinary.com/ratebeer/image/upload/w_250,c_limit/beer_14956.jpg
p675
asVBrewDog Jet Black Heart 
p676
(lp677
F4.1
aF7.0
aI1
aI0
aVhttp://res.cloudinary.com/ratebeer/image/upload/w_250,c_limit/beer_395517.jpg
p678
asVWESTMALLE DUBBEL 
p679
(lp680
F6.4
aF7.0
aI1
aI0
aVhttp://res.cloudinary.com/ratebeer/image/upload/w_250,c_limit/beer_2205.jpg
p681
asVDeus 
p682
(lp683
F11.5
aF100.0
aI1
aI0
aVhttp://res.cloudinary.com/ratebeer/image/upload/w_250,c_limit/beer_18912.jpg
p684
asVStormy Port Irish Porter 
p685
(lp686
F4.4
aF7.0
aI1
aI0
aVhttp://res.cloudinary.com/ratebeer/image/upload/w_250,c_limit/beer_164660.jpg
p687
asVDupont Avec Bons Voeux 
p688
(lp689
F8.7
aF5.0
aI1
aI0
aVhttp://res.cloudinary.com/ratebeer/image/upload/w_250,c_limit/beer_11047.jpg
p690
asVMetalman Pale Ale
p691
(lp692
F2.8
aF48.0
aI1
aI0
aVhttp://www.fourcorners.ie/perch/resources/other/metalman-pale-ale.png
p693
asVRanke Hop Harvest 2015
p694
(lp695
F5.8
aF7.0
aI1
aI0
aVhttp://res.cloudinary.com/ratebeer/image/upload/w_250,c_limit/beer_189698.jpg
p696
asVBrewDog Dead Pony Club Can 330
p697
(lp698
F3.8
aF100.0
aI1
aI0
aVimage not found
p699
asVSierra Nevada Pale Ale 
p700
(lp701
F2.1
aF42.0
aI1
aI0
aVhttp://res.cloudinary.com/ratebeer/image/upload/w_250,c_limit/beer_365.jpg
p702
asVOud Beersel Beersalis Tripel 7
p703
(lp704
F10.3
aF7.0
aI1
aI0
aVhttp://res.cloudinary.com/ratebeer/image/upload/w_250,c_limit/beer_53967.jpg
p705
asVOscar Blues Pinner Passion Fruit
p706
(lp707
F2.7
aF46.0
aI1
aI0
aVhttp://www.oakbarrel.com.au/images/products/lg_3447.jpg
p708
asVSam Adams Rebel IPA 
p709
(lp710
F5.2
aF40.0
aI1
aI0
aVhttp://res.cloudinary.com/ratebeer/image/upload/w_250,c_limit/beer_222791.jpg
p711
asVPORTERHOUSE PLAIN 
p712
(lp713
F3.1
aF7.0
aI1
aI0
aVhttp://www.theporterhouse.ie/images/beers/bottle-plain.png
p714
asVVICTORY STORM KING 
p715
(lp716
F9.1
aF2.0
aI1
aI0
aVhttp://res.cloudinary.com/ratebeer/image/upload/w_250,c_limit/beer_626.jpg
p717
asVLagunitas Lucky 13 
p718
(lp719
F8.6
aF7.0
aI1
aI0
aVhttps://lagunitas.com/u/img/beer-images/lucky13/Lucky-13-Lagunitas-12-oz-Bottle.png
p720
asVStone IPA Can 
p721
(lp722
F4.9
aF46.0
aI1
aI0
aVhttp://res.cloudinary.com/ratebeer/image/upload/w_250,c_limit/beer_422.jpg
p723
asVLagunitas Stoopid Wit 
p724
(lp725
F4.7
aF42.0
aI1
aI0
aVhttp://res.cloudinary.com/ratebeer/image/upload/w_250,c_limit/beer_435254.jpg
p726
asVBeavertown Neck Oil Can 330
p727
(lp728
F4.3
aF100.0
aI1
aI0
aVimage not found
p729
asVLagunitas Pale Ale 
p730
(lp731
F3.5
aF48.0
aI1
aI0
aVhttp://res.cloudinary.com/ratebeer/image/upload/w_250,c_limit/beer_86876.jpg
p732
asVSka Brewing Modus Mandarina 35
p733
(lp734
F6.2
aF43.0
aI1
aI0
aVhttp://res.cloudinary.com/ratebeer/image/upload/w_250,c_limit/beer_260630.jpg
p735
asVWhite Hag Wit 
p736
(lp737
F3.9
aF6.0
aI1
aI0
aVhttp://www.beersofeurope.co.uk/media/catalog/product/cache/1/image/9df78eab33525d08d6e5fb8d27136e95/pimages/TheWhiteHagRedDoe.jpg
p738
asVAnchor Liberty Ale 
p739
(lp740
F4.5
aF43.0
aI1
aI0
aVhttp://res.cloudinary.com/ratebeer/image/upload/w_250,c_limit/beer_47.jpg
p741
asVTrouble Brewing Sabotage IPA
p742
(lp743
F5.1
aF36.0
aI1
aI0
aVhttp://www.martinsofflicence.ie/cms/images/708x708_p1374748070442_trouble_brewing_sabotage_india_pale_ale.jpg
p744
asVOdell's Lugene Choco Milk Stou
p745
(lp746
F7.0
aF7.0
aI1
aI0
aVhttp://res.cloudinary.com/ratebeer/image/upload/w_250,c_limit/beer_194215.jpg
p747
asVBrooklyn Sorachi  Ace
p748
(lp749
F5.6
aF41.0
aI1
aI0
aVhttp://www.beersofeurope.co.uk/media/catalog/product/cache/1/image/9df78eab33525d08d6e5fb8d27136e95/pimages/BrooklynSorachiAce.jpg
p750
asVBeavertown Smog Rocket Can 330
p751
(lp752
F3.8
aF7.0
aI1
aI0
aVhttps://www.beermerchants.com/media/catalog/product/cache/1/image/x400/17f82f742ffe127f42dca9de82fb58b1/b/e/beavertown_smog_rocket_2.png
p753
asVSierra Nevada Torpedo 
p754
(lp755
F6.7
aF41.0
aI1
aI0
aVhttp://res.cloudinary.com/ratebeer/image/upload/w_250,c_limit/beer_59261.jpg
p756
asVBeavertown 8 Ball
p757
(lp758
F6.0
aF7.0
aI1
aI0
aVhttp://www.cavedirect.com/img/db/product-large/beavertown-8-ball-cave-direct.jpg
p759
asVVeltins Pilsner 
p760
(lp761
F3.2
aF35.0
aI1
aI0
aVhttp://res.cloudinary.com/ratebeer/image/upload/w_250,c_limit/beer_4040.jpg
p762
asVWESTMALLE TRIPEL 
p763
(lp764
F8.6
aF5.0
aI1
aI0
aVhttp://res.cloudinary.com/ratebeer/image/upload/w_250,c_limit/beer_2204.jpg
p765
asVRascal's Big Hop Red Can 
p766
(lp767
F5.0
aF31.0
aI1
aI0
aVhttp://www.martinsofflicence.ie/cms/images/260x510_p1455027698855_rascals_big_hop_red.jpg
p768
asVSierra Nevada Pale Ale Can 355
p769
(lp770
F2.1
aF42.0
aI1
aI0
aVhttp://res.cloudinary.com/ratebeer/image/upload/w_250,c_limit/beer_365.jpg
p771
asVBrewDog Kingpin Lager
p772
(lp773
F2.9
aF29.0
aI1
aI0
aVhttp://www.beersofeurope.co.uk/media/catalog/product/cache/1/image/9df78eab33525d08d6e5fb8d27136e95/pimages/BrewdogKingpin.jpg
p774
asVBrewDog Vagabond P A 
p775
(lp776
F1.7
aF38.0
aI1
aI0
aVhttp://res.cloudinary.com/ratebeer/image/upload/w_250,c_limit/beer_304469.jpg
p777
asVLagunitas The Down Low 
p778
(lp779
F3.3
aF52.0
aI1
aI0
aVhttps://lagunitas.com/u/img/beer-images/downlow/DownLow_Web.png
p780
asVBeavertown Gamma Ray Can
p781
(lp782
F2.4
aF51.0
aI1
aI0
aVhttp://res.cloudinary.com/ratebeer/image/upload/w_250,c_limit/beer_189363.jpg
p783
asVAnderson V Brother David 
p784
(lp785
F10.4
aF7.0
aI1
aI0
aVhttp://res.cloudinary.com/ratebeer/image/upload/w_250,c_limit/beer_34081.jpg
p786
asVO'HARAS LEANN FOLLAIN 
p787
(lp788
F5.2
aF7.0
aI1
aI0
aVhttp://res.cloudinary.com/ratebeer/image/upload/w_250,c_limit/beer_100788.jpg
p789
asVOBrother The Chancer APA 
p790
(lp791
F5.3
aF38.0
aI1
aI0
aVhttps://www.obrienswine.ie/media/catalog/product/1/5/15B180-O-Brother-Brewing-Chancer-APA-50cl-Bottle.png
p792
asVThornbridge Eldon 
p793
(lp794
F7.1
aF7.0
aI1
aI0
aVhttp://www.pivovarorders.co.uk/user/products/large/ELDON%20BOTTLE.png
p795
asVBrewDog Punk IPA Can 
p796
(lp797
F5.4
aF7.0
aI1
aI0
aVhttps://molloys.ie/media/catalog/product/cache/1/image/500x500/9df78eab33525d08d6e5fb8d27136e95/b/r/brewdog_punk_ipa_330ml_can_thumbnail.png
p798
asVO'HARAS IRISH PALE ALE 
p799
(lp800
F3.9
aF41.0
aI1
aI0
aVhttp://res.cloudinary.com/ratebeer/image/upload/w_250,c_limit/beer_126380.jpg
p801
asVOscar Blues G'Knight 
p802
(lp803
F6.6
aF7.0
aI1
aI0
aVhttp://extras.mnginteractive.com/live/media/site21/2011/0114/20110114__15dcaoskw~2.jpg
p804
asVWhite Gypsy Doppelbock 
p805
(lp806
F7.4
aF7.0
aI1
aI0
aVhttp://www.martinsofflicence.ie/cms/images/260x510_p1371558542122_23463666.jpg
p807
as.