(lp0
(lp1
S'3 Fonteinen Oude Geuze'
p2
aS'311168'
p3
aF6.0
aI1
aI7
aI0
aS'http://res.cloudinary.com/ratebeer/image/upload/w_250,c_limit/beer_311168.jpg'
p4
aa(lp5
S'KNOCKMEALDOWN PORTER '
p6
aS'160562'
p7
aF4.8
aI32
aI7
aI0
aS'http://res.cloudinary.com/ratebeer/image/upload/w_250,c_limit/beer_160562.jpg'
p8
aa(lp9
S'Ska Brewing Decadent IPA Can'
p10
aS'43088'
p11
aF10.0
aI8
aF32.0
aI0
aS'http://res.cloudinary.com/ratebeer/image/upload/w_250,c_limit/beer_43088.jpg'
p12
aa(lp13
S'La Trappe Tripel '
p14
aS'4564'
p15
aF8.0
aI37
aI7
aI0
aS'http://res.cloudinary.com/ratebeer/image/upload/w_250,c_limit/beer_4564.jpg'
p16
aa(lp17
S'Boon Oude Geuze Black Label'
p18
aS'367485'
p19
aF6.0
aI37
aF7.0
aF6.0
aS'http://res.cloudinary.com/ratebeer/image/upload/w_250,c_limit/beer_367485.jpg'
p20
aa(lp21
S"O'HARAS IRISH RED "
p22
aS'44140'
p23
aF2.9
aI37
aF1.0
aI0
aS'http://res.cloudinary.com/ratebeer/image/upload/w_250,c_limit/beer_44140.jpg'
p24
aa(lp25
S'Little Creatures Pale Ale 330M'
p26
aS'7658'
p27
aF3.1
aI1
aF40.0
aI0
aS'http://res.cloudinary.com/ratebeer/image/upload/w_250,c_limit/beer_7658.jpg'
p28
aa(lp29
S'Anchor Christmas 2015 '
p30
aS'200552930'
p31
aF5.3
aI1
aI7
aI0
aS'http://res.cloudinary.com/ratebeer/image/upload/w_250,c_limit/beer_200552930.jpg'
p32
aa(lp33
S'BrewDog Elvis Juice '
p34
aS'2016388589'
p35
aF6.3
aI1
aI7
aI0
aS'http://res.cloudinary.com/ratebeer/image/upload/w_250,c_limit/beer_2016388589.jpg'
p36
aa(lp37
S'Oud Beersel Framboise '
p38
aS'49975'
p39
aF3.6
aI1
aI7
aF3.0
aS'http://res.cloudinary.com/ratebeer/image/upload/w_250,c_limit/beer_49975.jpg'
p40
aa(lp41
S'Sierra Nevada Torpedo Can 473M'
p42
aNaF7.2
aI1
aI100
aI0
aS'image not found'
p43
aa(lp44
S'Krombacher Pils Can '
p45
aS'3370'
p46
aF2.8
aI1
aF33.0
aI0
aS'http://res.cloudinary.com/ratebeer/image/upload/w_250,c_limit/beer_3370.jpg'
p47
aa(lp48
S'Sierra Nevada Pale Ale Can 355'
p49
aS'365'
p50
aF2.1
aI1
aF42.0
aI0
aS'http://res.cloudinary.com/ratebeer/image/upload/w_250,c_limit/beer_365.jpg'
p51
aa(lp52
S'Odells Fernet Aged Porter'
p53
aS'175738'
p54
aF9.4
aI1
aI7
aI0
aS'http://res.cloudinary.com/ratebeer/image/upload/w_250,c_limit/beer_175738.jpg'
p55
aa(lp56
S'Brooklyn Blast Ale '
p57
aS'51334'
p58
aF7.7
aI1
aF38.0
aI0
aS'http://res.cloudinary.com/ratebeer/image/upload/w_250,c_limit/beer_51334.jpg'
p59
aa(lp60
S'Samuel Adams Boston Lager'
p61
aS'158'
p62
aF2.6
aI1
aF31.0
aI0
aS'http://res.cloudinary.com/ratebeer/image/upload/w_250,c_limit/beer_158.jpg'
p63
aa(lp64
S'Bzat Kriekenlambiek Oud Beerse'
p65
aNaF8.0
aI1
aI100
aI0
ag43
aa(lp66
S'Metalman Equinox Can '
p67
aS'206033'
p68
aF3.7
aI1
aF38.0
aI0
aS'http://res.cloudinary.com/ratebeer/image/upload/w_250,c_limit/beer_206033.jpg'
p69
aa(lp70
S'Stone Brewing Ruination IPA Ca'
p71
aS'14709'
p72
aF7.1
aI1
aF47.0
aI0
aS'http://res.cloudinary.com/ratebeer/image/upload/w_250,c_limit/beer_14709.jpg'
p73
aa(lp74
S'MOOSEHEAD '
p75
aNaF5.0
aI1
aI100
aI0
ag43
aa(lp76
S'Sierra Nevada North Harve'
p77
aNaF6.7
aI1
aI100
aI0
ag43
aa(lp78
S'Birrifico Verdi Black Jack 330'
p79
aS'12425921'
p80
aF9.8
aI1
aI7
aI0
aS'http://res.cloudinary.com/ratebeer/image/upload/w_250,c_limit/beer_12425921.jpg'
p81
aa(lp82
S'Sierra Nevada Hoptimum '
p83
aS'117825'
p84
aF10.2
aI1
aF39.0
aI0
aS'http://res.cloudinary.com/ratebeer/image/upload/w_250,c_limit/beer_117825.jpg'
p85
aa(lp86
S'Wicklow Wolf IPA '
p87
aS'303283'
p88
aF6.4
aI1
aF42.0
aI0
aS'http://res.cloudinary.com/ratebeer/image/upload/w_250,c_limit/beer_303283.jpg'
p89
aa(lp90
S'CURIM '
p91
aS'4941'
p92
aF2.7
aI1
aF30.0
aI0
aS'http://res.cloudinary.com/ratebeer/image/upload/w_250,c_limit/beer_4941.jpg'
p93
aa(lp94
S'Peroni Nastro Azzurro '
p95
aS'3029'
p96
aF3.5
aI1
aF37.0
aI0
aS'http://res.cloudinary.com/ratebeer/image/upload/w_250,c_limit/beer_3029.jpg'
p97
aa(lp98
S'Camden Town IHL Barrel Aged 66'
p99
aS'316205'
p100
aF7.3
aI1
aF28.0
aI0
aS'http://res.cloudinary.com/ratebeer/image/upload/w_250,c_limit/beer_316205.jpg'
p101
aa(lp102
S'Brooklyn Improved Old Fashione'
p103
aS'398364'
p104
aF13.3
aI1
aI7
aI0
aS'http://res.cloudinary.com/ratebeer/image/upload/w_250,c_limit/beer_398364.jpg'
p105
aa(lp106
S'STAROPRAMEN '
p107
aS'123784'
p108
aF4.8
aI1
aI7
aI0
aS'http://res.cloudinary.com/ratebeer/image/upload/w_250,c_limit/beer_123784.jpg'
p109
aa(lp110
S'Mikkeller Spontan Cherry '
p111
aS'205607'
p112
aF6.6
aI1
aI7
aF4.0
aS'http://res.cloudinary.com/ratebeer/image/upload/w_250,c_limit/beer_205607.jpg'
p113
aa(lp114
S'St. Bernardus Abt 12 Magnum'
p115
aS'122016436364'
p116
aF10.0
aI1
aI100
aI0
aS'http://res.cloudinary.com/ratebeer/image/upload/w_250,c_limit/beer_122016436364.jpg'
p117
aa(lp118
S'Chapeau Cuvee Oude Geuze '
p119
aS'6241'
p120
aF3.5
aI1
aF6.0
aF7.0
aS'http://res.cloudinary.com/ratebeer/image/upload/w_250,c_limit/beer_6241.jpg'
p121
aa(lp122
S"O'Hara's Double IPA "
p123
aS'204890'
p124
aF5.6
aI1
aF31.0
aI0
aS'http://res.cloudinary.com/ratebeer/image/upload/w_250,c_limit/beer_204890.jpg'
p125
aa(lp126
S'Lagunitas Equinox '
p127
aS'8219'
p128
aF7.5
aI1
aF35.0
aI0
aS'http://res.cloudinary.com/ratebeer/image/upload/w_250,c_limit/beer_8219.jpg'
p129
aa(lp130
S'La Trappe Blonde '
p131
aS'10380'
p132
aF5.8
aI1
aI7
aI0
aS'http://res.cloudinary.com/ratebeer/image/upload/w_250,c_limit/beer_10380.jpg'
p133
aa(lp134
S'BrewDog Dead Pony Club Can 330'
p135
aNaF3.8
aI1
aI100
aI0
ag43
aa(lp136
S'Odells St. Lupulin Can '
p137
aS'104413'
p138
aF3.9
aI1
aF48.0
aI0
aS'http://res.cloudinary.com/ratebeer/image/upload/w_250,c_limit/beer_104413.jpg'
p139
aa(lp140
S'Oscar Blues Pinner Throwback I'
p141
aS'305178'
p142
aF2.2
aI1
aF44.0
aI0
aS'http://res.cloudinary.com/ratebeer/image/upload/w_250,c_limit/beer_305178.jpg'
p143
aa(lp144
S'Bzat Lambiek Oud Beersel '
p145
aS'23561'
p146
aF6.8
aI1
aF29.0
aF7.0
aS'http://res.cloudinary.com/ratebeer/image/upload/w_250,c_limit/beer_23561.jpg'
p147
aa(lp148
S'Boon Framboise '
p149
aS'4430'
p150
aF5.0
aI1
aI7
aF3.0
aS'http://res.cloudinary.com/ratebeer/image/upload/w_250,c_limit/beer_4430.jpg'
p151
aa(lp152
S'Brooklyn K is for Kriek'
p153
aS'313624'
p154
aF9.8
aI1
aI7
aF3.0
aS'http://res.cloudinary.com/ratebeer/image/upload/w_250,c_limit/beer_313624.jpg'
p155
aa(lp156
S'Left Hand Wake Up Dead '
p157
aS'429'
p158
aF9.5
aI1
aI7
aI0
aS'http://res.cloudinary.com/ratebeer/image/upload/w_250,c_limit/beer_429.jpg'
p159
aa(lp160
S'WEIHENSTEPHANER DUNKEL '
p161
aS'4583'
p162
aF3.9
aI1
aI7
aI0
aS'http://res.cloudinary.com/ratebeer/image/upload/w_250,c_limit/beer_4583.jpg'
p163
aa(lp164
S'Siren White Tips '
p165
aS'264635'
p166
aF2.3
aI1
aF49.0
aI0
aS'http://res.cloudinary.com/ratebeer/image/upload/w_250,c_limit/beer_264635.jpg'
p167
aa(lp168
S'BrewDog JackHammer Can '
p169
aS'178585'
p170
aF6.3
aI1
aF57.0
aI0
aS'http://res.cloudinary.com/ratebeer/image/upload/w_250,c_limit/beer_178585.jpg'
p171
aa(lp172
S'Founders Devil Dancer '
p173
aS'34518'
p174
aF11.6
aI1
aF32.0
aI0
aS'http://res.cloudinary.com/ratebeer/image/upload/w_250,c_limit/beer_34518.jpg'
p175
aa(lp176
S'Mikkeller Raspberry Trippelboc'
p177
aS'317889'
p178
aF13.0
aI1
aI7
aI0
aS'http://res.cloudinary.com/ratebeer/image/upload/w_250,c_limit/beer_317889.jpg'
p179
aa(lp180
S'Siren Maiden 2014'
p181
aS'2014319421'
p182
aF10.8
aI1
aI7
aI0
aS'http://res.cloudinary.com/ratebeer/image/upload/w_250,c_limit/beer_2014319421.jpg'
p183
aa(lp184
S'Bay Ale Irish Red Ale '
p185
aS'375824'
p186
aF4.3
aI1
aF29.0
aI0
aS'http://res.cloudinary.com/ratebeer/image/upload/w_250,c_limit/beer_375824.jpg'
p187
aa(lp188
S'CHIMAY BLUE GRANDE RES'
p189
aS'53'
p190
aF8.8
aI1
aI7
aI0
aS'http://res.cloudinary.com/ratebeer/image/upload/w_250,c_limit/beer_53.jpg'
p191
aa(lp192
S'CORONA '
p193
aNaF4.6
aI1
aI100
aI0
ag43
aa(lp194
S"Rascal's Yankee White IPA Can"
p195
aS'345994'
p196
aF4.8
aI1
aF39.0
aI0
aS'http://res.cloudinary.com/ratebeer/image/upload/w_250,c_limit/beer_345994.jpg'
p197
aa(lp198
S'Kinnegar Brewing Yannaroddy'
p199
aS'240804'
p200
aF4.4
aI1
aI7
aI0
aS'http://res.cloudinary.com/ratebeer/image/upload/w_250,c_limit/beer_240804.jpg'
p201
aa(lp202
S"Rascal's Wunderbar IPA Can 330"
p203
aS'333361'
p204
aF5.7
aI1
aF32.0
aI0
aS'http://res.cloudinary.com/ratebeer/image/upload/w_250,c_limit/beer_333361.jpg'
p205
aa(lp206
S'Anchor Porter '
p207
aS'48'
p208
aF4.6
aI1
aI7
aI0
aS'http://res.cloudinary.com/ratebeer/image/upload/w_250,c_limit/beer_48.jpg'
p209
aa(lp210
S'Left Hand Smokejumper '
p211
aS'65635'
p212
aF7.4
aI1
aI7
aI0
aS'http://res.cloudinary.com/ratebeer/image/upload/w_250,c_limit/beer_65635.jpg'
p213
aa(lp214
S'BrewDog Cocoa Psycho'
p215
aS'194513'
p216
aF10.0
aI1
aI7
aI0
aS'http://res.cloudinary.com/ratebeer/image/upload/w_250,c_limit/beer_194513.jpg'
p217
aa(lp218
S'BlackJack Drogheda Cream '
p219
aS'314862'
p220
aF4.6
aI1
aI7
aI0
aS'http://res.cloudinary.com/ratebeer/image/upload/w_250,c_limit/beer_314862.jpg'
p221
aa(lp222
S'BrewDog 5AM Saint '
p223
aS'5107269'
p224
aF4.8
aI1
aI7
aI0
aS'http://res.cloudinary.com/ratebeer/image/upload/w_250,c_limit/beer_5107269.jpg'
p225
aa(lp226
S'Asahi '
p227
aNaF5.0
aI1
aI100
aI0
ag43
aa(lp228
S'BrewDog Sink The Bismark 375M'
p229
aS'118414'
p230
aF43.1
aI1
aF29.0
aI0
aS'http://res.cloudinary.com/ratebeer/image/upload/w_250,c_limit/beer_118414.jpg'
p231
aa(lp232
S'BREWDOG PUNK IPA '
p233
aS'56135361'
p234
aF5.4
aI1
aI7
aI0
aS'http://res.cloudinary.com/ratebeer/image/upload/w_250,c_limit/beer_56135361.jpg'
p235
aa(lp236
S'Founders Centennial IPA '
p237
aS'3168'
p238
aF5.4
aI1
aF36.0
aI0
aS'http://res.cloudinary.com/ratebeer/image/upload/w_250,c_limit/beer_3168.jpg'
p239
aa(lp240
S'Boon Geuze '
p241
aS'4631'
p242
aF4.6
aI1
aF29.0
aF6.0
aS'http://res.cloudinary.com/ratebeer/image/upload/w_250,c_limit/beer_4631.jpg'
p243
aa(lp244
S'Beoir Chorca Cul Dorcha 500M'
p245
aS'15799331'
p246
aF4.8
aI1
aI7
aI0
aS'http://res.cloudinary.com/ratebeer/image/upload/w_250,c_limit/beer_15799331.jpg'
p247
aa(lp248
S'Odells Footprint '
p249
aS'2014268106'
p250
aF9.4
aI1
aI7
aI0
aS'http://res.cloudinary.com/ratebeer/image/upload/w_250,c_limit/beer_2014268106.jpg'
p251
aa(lp252
S'Anchor IPA '
p253
aNaF6.5
aI1
aI100
aI0
ag43
aa(lp254
S'Sam Adams Rebel IPA '
p255
aS'222791'
p256
aF5.2
aI1
aF40.0
aI0
aS'http://res.cloudinary.com/ratebeer/image/upload/w_250,c_limit/beer_222791.jpg'
p257
aa(lp258
S'Lagunitas IPA '
p259
aS'6887'
p260
aF4.5
aI1
aF40.0
aI0
aS'http://res.cloudinary.com/ratebeer/image/upload/w_250,c_limit/beer_6887.jpg'
p261
aa(lp262
S'Maisel '
p263
aS'185853'
p264
aF6.9
aI1
aI7
aI0
aS'http://res.cloudinary.com/ratebeer/image/upload/w_250,c_limit/beer_185853.jpg'
p265
aa(lp266
S'CHIMAY RED PREMIERE '
p267
aS'51'
p268
aF6.1
aI1
aI7
aI0
aS'http://res.cloudinary.com/ratebeer/image/upload/w_250,c_limit/beer_51.jpg'
p269
aa(lp270
S'Brooklyn Monster Ale '
p271
aS'538'
p272
aF11.1
aI1
aI7
aI0
aS'http://res.cloudinary.com/ratebeer/image/upload/w_250,c_limit/beer_538.jpg'
p273
aa(lp274
S'Lindemans Spontanbasil 750'
p275
aS'331545'
p276
aF4.6
aI1
aF29.0
aF4.0
aS'http://res.cloudinary.com/ratebeer/image/upload/w_250,c_limit/beer_331545.jpg'
p277
aa(lp278
S'Mine Head '
p279
aNaF5.5
aI1
aI100
aI0
ag43
aa(lp280
S'Founders Porter '
p281
aS'3173'
p282
aF5.5
aI1
aI7
aI0
aS'http://res.cloudinary.com/ratebeer/image/upload/w_250,c_limit/beer_3173.jpg'
p283
aa(lp284
S'BrewDog Black Eyed King Imp 33'
p285
aS'369326'
p286
aF13.5
aI1
aI7
aI0
aS'http://res.cloudinary.com/ratebeer/image/upload/w_250,c_limit/beer_369326.jpg'
p287
aa(lp288
S'Boon Kreik Mariage Parfai'
p289
aS'6924'
p290
aF6.7
aI1
aI7
aF5.0
aS'http://res.cloudinary.com/ratebeer/image/upload/w_250,c_limit/beer_6924.jpg'
p291
aa(lp292
S'CHIMAY WHITE CINQ CENTS '
p293
aS'52'
p294
aF6.8
aI1
aF6.0
aI0
aS'http://res.cloudinary.com/ratebeer/image/upload/w_250,c_limit/beer_52.jpg'
p295
aa(lp296
S'Thornbridge HALL Sour Brown 50'
p297
aS'230661'
p298
aF7.1
aI1
aI7
aF5.0
aS'http://res.cloudinary.com/ratebeer/image/upload/w_250,c_limit/beer_230661.jpg'
p299
aa(lp300
S'Brooklyn Hand '
p301
aS'291968'
p302
aF14.3
aI1
aI7
aI0
aS'http://res.cloudinary.com/ratebeer/image/upload/w_250,c_limit/beer_291968.jpg'
p303
aa(lp304
S'Brooklyn Local 2 '
p305
aS'296545'
p306
aF8.7
aI1
aF30.0
aI0
aS'http://res.cloudinary.com/ratebeer/image/upload/w_250,c_limit/beer_296545.jpg'
p307
aa(lp308
S'WEIHENSTEPHANER KRISTALL '
p309
aS'4584'
p310
aF2.2
aI1
aI7
aI0
aS'http://res.cloudinary.com/ratebeer/image/upload/w_250,c_limit/beer_4584.jpg'
p311
aa(lp312
S'La Trappe Dubbel '
p313
aS'4563'
p314
aF6.8
aI1
aI7
aI0
aS'http://res.cloudinary.com/ratebeer/image/upload/w_250,c_limit/beer_4563.jpg'
p315
aa(lp316
S'BREWDOG TOKYO '
p317
aS'107203'
p318
aF17.2
aI1
aI7
aI0
aS'http://res.cloudinary.com/ratebeer/image/upload/w_250,c_limit/beer_107203.jpg'
p319
aa(lp320
S'Aecht Schlenkerla Weizen '
p321
aS'8565'
p322
aF3.6
aI1
aI7
aI0
aS'http://res.cloudinary.com/ratebeer/image/upload/w_250,c_limit/beer_8565.jpg'
p323
aa(lp324
S'Founders Mango Magnifico '
p325
aS'7219170'
p326
aF9.8
aI1
aI7
aI0
aS'http://res.cloudinary.com/ratebeer/image/upload/w_250,c_limit/beer_7219170.jpg'
p327
aa(lp328
S'Boon Kriek '
p329
aS'4505'
p330
aF0.8
aI1
aI7
aF2.0
aS'http://res.cloudinary.com/ratebeer/image/upload/w_250,c_limit/beer_4505.jpg'
p331
aa(lp332
S'Fourpure Oatmeal Stout Can 330'
p333
aS'23831219'
p334
aF4.9
aI1
aI7
aI0
aS'http://res.cloudinary.com/ratebeer/image/upload/w_250,c_limit/beer_23831219.jpg'
p335
aa(lp336
S'Odells Trellis Garden Al '
p337
aS'274475'
p338
aF8.3
aI1
aF35.0
aI0
aS'http://res.cloudinary.com/ratebeer/image/upload/w_250,c_limit/beer_274475.jpg'
p339
aa(lp340
S'Metalman Heatsink '
p341
aS'313991'
p342
aF4.5
aI1
aI7
aI0
aS'http://res.cloudinary.com/ratebeer/image/upload/w_250,c_limit/beer_313991.jpg'
p343
aa(lp344
S'Thornbridge HALL Double Scotch'
p345
aS'249122'
p346
aF7.7
aI1
aI7
aI0
aS'http://res.cloudinary.com/ratebeer/image/upload/w_250,c_limit/beer_249122.jpg'
p347
aa(lp348
S'Fourpure Juicebox Citrus IPA 5'
p349
aS'408187'
p350
aF4.4
aI1
aF54.0
aI0
aS'http://res.cloudinary.com/ratebeer/image/upload/w_250,c_limit/beer_408187.jpg'
p351
aa(lp352
S'Schorsch Bock ICE 30 '
p353
aS'30204492'
p354
aF29.8
aI1
aI7
aI0
aS'http://res.cloudinary.com/ratebeer/image/upload/w_250,c_limit/beer_30204492.jpg'
p355
aa(lp356
S'CHIMAY BLUE '
p357
aS'53'
p358
aF8.8
aI1
aI7
aI0
aS'http://res.cloudinary.com/ratebeer/image/upload/w_250,c_limit/beer_53.jpg'
p359
aa(lp360
S'PORTERHOUSE OYSTER STOUT'
p361
aS'11379'
p362
aF4.4
aI1
aI7
aI0
aS'http://res.cloudinary.com/ratebeer/image/upload/w_250,c_limit/beer_11379.jpg'
p363
aa(lp364
S'WEIHENSTEPHANER VITUS '
p365
aS'70791'
p366
aF6.0
aI1
aI7
aI0
aS'http://res.cloudinary.com/ratebeer/image/upload/w_250,c_limit/beer_70791.jpg'
p367
aa(lp368
S'Founders Imperial Stout '
p369
aS'5933'
p370
aF10.6
aI1
aI7
aI0
aS'http://res.cloudinary.com/ratebeer/image/upload/w_250,c_limit/beer_5933.jpg'
p371
aa(lp372
S'BrewDog Nanny State '
p373
aS'05117796'
p374
aF0.3
aI1
aI7
aI0
aS'http://res.cloudinary.com/ratebeer/image/upload/w_250,c_limit/beer_05117796.jpg'
p375
aa(lp376
S'White Gypsy Russian Impy '
p377
aS'158774110'
p378
aF6.8
aI1
aI7
aI0
aS'http://res.cloudinary.com/ratebeer/image/upload/w_250,c_limit/beer_158774110.jpg'
p379
aa(lp380
S'Founders Centennial IPA Can'
p381
aS'3168'
p382
aF5.4
aI1
aF36.0
aI0
aS'http://res.cloudinary.com/ratebeer/image/upload/w_250,c_limit/beer_3168.jpg'
p383
aa(lp384
S'Blacks Kinsale Black IPA '
p385
aS'236468'
p386
aF4.9
aI1
aF31.0
aI0
aS'http://res.cloudinary.com/ratebeer/image/upload/w_250,c_limit/beer_236468.jpg'
p387
aa(lp388
S'Oscar Blues Old Chub Can 355M'
p389
aS'11579'
p390
aF7.1
aI1
aI7
aI0
aS'http://res.cloudinary.com/ratebeer/image/upload/w_250,c_limit/beer_11579.jpg'
p391
aa(lp392
S'Weihenstephaner Non Alchol 500'
p393
aS'6038'
p394
aF-1.2
aI1
aI7
aI0
aS'http://res.cloudinary.com/ratebeer/image/upload/w_250,c_limit/beer_6038.jpg'
p395
aa(lp396
S'Trouble Brewing Dark Arts Port'
p397
aS'140325'
p398
aF3.8
aI1
aI7
aI0
aS'http://res.cloudinary.com/ratebeer/image/upload/w_250,c_limit/beer_140325.jpg'
p399
aa(lp400
S"O'Hara's Leann Follain Barrel"
p401
aS'225252'
p402
aF8.7
aI1
aI7
aI0
aS'http://res.cloudinary.com/ratebeer/image/upload/w_250,c_limit/beer_225252.jpg'
p403
aa(lp404
S'Siren Vanilla Weisse '
p405
aS'409507'
p406
aF2.8
aI1
aI7
aF3.0
aS'http://res.cloudinary.com/ratebeer/image/upload/w_250,c_limit/beer_409507.jpg'
p407
aa(lp408
S'ROCHEFORT '
p409
aNaF11.3
aI1
aI100
aI0
ag43
aa(lp410
S'Brooklyn Cuvee Noir '
p411
aS'132633'
p412
aF10.9
aI1
aI7
aI0
aS'http://res.cloudinary.com/ratebeer/image/upload/w_250,c_limit/beer_132633.jpg'
p413
aa(lp414
S'Mikkeller Raspberry Quadrupel'
p415
aS'317889'
p416
aF12.9
aI1
aI7
aI0
aS'http://res.cloudinary.com/ratebeer/image/upload/w_250,c_limit/beer_317889.jpg'
p417
aa(lp418
S'Ska Brewing Modus Hoperandi Ca'
p419
aS'99487'
p420
aF6.2
aI1
aF41.0
aI0
aS'http://res.cloudinary.com/ratebeer/image/upload/w_250,c_limit/beer_99487.jpg'
p421
aa(lp422
S'Anchor Brekles Brown '
p423
aS'139388'
p424
aF4.3
aI1
aF4.0
aI0
aS'http://res.cloudinary.com/ratebeer/image/upload/w_250,c_limit/beer_139388.jpg'
p425
aa(lp426
S'3 Fonteinen Oude Geuze Gold 75'
p427
aS'311168'
p428
aF6.0
aI1
aI7
aI0
aS'http://res.cloudinary.com/ratebeer/image/upload/w_250,c_limit/beer_311168.jpg'
p429
aa(lp430
S'Lindemans Cuvee Rene Kriek 750'
p431
aS'72448'
p432
aF5.0
aI1
aF0.0
aF6.0
aS'http://res.cloudinary.com/ratebeer/image/upload/w_250,c_limit/beer_72448.jpg'
p433
aa(lp434
S"Lagunitas Little Sumpin' "
p435
aS'103006'
p436
aF5.6
aI1
aF35.0
aI0
aS'http://res.cloudinary.com/ratebeer/image/upload/w_250,c_limit/beer_103006.jpg'
p437
aa(lp438
S'Oud Beersel Beersalis Tripel 7'
p439
aS'53967'
p440
aF10.3
aI1
aI7
aI0
aS'http://res.cloudinary.com/ratebeer/image/upload/w_250,c_limit/beer_53967.jpg'
p441
aa(lp442
S'BAREFOOT BOHEMIAN LAGER '
p443
aS'172470'
p444
aF3.5
aI1
aF32.0
aI0
aS'http://res.cloudinary.com/ratebeer/image/upload/w_250,c_limit/beer_172470.jpg'
p445
aa(lp446
S'Odells India Pale Ale Can'
p447
aS'70770'
p448
aF4.8
aI1
aF46.0
aI0
aS'http://res.cloudinary.com/ratebeer/image/upload/w_250,c_limit/beer_70770.jpg'
p449
aa(lp450
S'Wicklow Wolf American Amb'
p451
aS'298576'
p452
aF4.5
aI1
aF29.0
aI0
aS'http://res.cloudinary.com/ratebeer/image/upload/w_250,c_limit/beer_298576.jpg'
p453
aa(lp454
S'Thornbridge Jaipur '
p455
aS'48795'
p456
aF3.2
aI1
aF49.0
aI0
aS'http://res.cloudinary.com/ratebeer/image/upload/w_250,c_limit/beer_48795.jpg'
p457
aa(lp458
S'Wicklow Wolf Black Perle '
p459
aS'303281'
p460
aF4.7
aI1
aI7
aI0
aS'http://res.cloudinary.com/ratebeer/image/upload/w_250,c_limit/beer_303281.jpg'
p461
aa(lp462
S'Odells Drumroll APA Can '
p463
aS'424542'
p464
aF3.5
aI1
aF49.0
aI0
aS'http://res.cloudinary.com/ratebeer/image/upload/w_250,c_limit/beer_424542.jpg'
p465
aa(lp466
S'3 Fonteinen Intense Red '
p467
aS'3210269'
p468
aF5.8
aI1
aI7
aI0
aS'http://res.cloudinary.com/ratebeer/image/upload/w_250,c_limit/beer_3210269.jpg'
p469
aa(lp470
S'Lagunitas Stoopid Wit '
p471
aS'435254'
p472
aF4.7
aI1
aF42.0
aI0
aS'http://res.cloudinary.com/ratebeer/image/upload/w_250,c_limit/beer_435254.jpg'
p473
aa(lp474
S'Lindemans Blossom Geuze '
p475
aS'374575'
p476
aF4.8
aI1
aF30.0
aF5.0
aS'http://res.cloudinary.com/ratebeer/image/upload/w_250,c_limit/beer_374575.jpg'
p477
aa(lp478
S'Brooklyn Local 1 '
p479
aS'170492'
p480
aF8.8
aI1
aI7
aI0
aS'http://res.cloudinary.com/ratebeer/image/upload/w_250,c_limit/beer_170492.jpg'
p481
aa(lp482
S'Lindemans Cuvee Rene Oude Guez'
p483
aS'2010330384'
p484
aF5.8
aI1
aI7
aI0
aS'http://res.cloudinary.com/ratebeer/image/upload/w_250,c_limit/beer_2010330384.jpg'
p485
aa(lp486
S"Birrifico L'Ultima Luna "
p487
aS'118957'
p488
aF14.4
aI1
aI7
aI0
aS'http://res.cloudinary.com/ratebeer/image/upload/w_250,c_limit/beer_118957.jpg'
p489
aa(lp490
S'Stone Brewing Cali'
p491
aS'87480'
p492
aF6.1
aI1
aF34.0
aI0
aS'http://res.cloudinary.com/ratebeer/image/upload/w_250,c_limit/beer_87480.jpg'
p493
aa(lp494
S'Odells Runoff Red Ale '
p495
aS'99330'
p496
aF4.4
aI1
aF33.0
aI0
aS'http://res.cloudinary.com/ratebeer/image/upload/w_250,c_limit/beer_99330.jpg'
p497
aa(lp498
S'WEIHENSTEPHANER HEFE '
p499
aS'1156'
p500
aF2.2
aI1
aI7
aI0
aS'http://res.cloudinary.com/ratebeer/image/upload/w_250,c_limit/beer_1156.jpg'
p501
aa(lp502
S'La Trappe Quadrupel '
p503
aS'4565'
p504
aF10.0
aI1
aI7
aI0
aS'http://res.cloudinary.com/ratebeer/image/upload/w_250,c_limit/beer_4565.jpg'
p505
aa(lp506
S'SUNBURNT RED ALE '
p507
aS'154054'
p508
aF3.7
aI1
aF6.0
aI0
aS'http://res.cloudinary.com/ratebeer/image/upload/w_250,c_limit/beer_154054.jpg'
p509
aa(lp510
S'Odells Friek '
p511
aS'113162'
p512
aF8.4
aI1
aI7
aF5.0
aS'http://res.cloudinary.com/ratebeer/image/upload/w_250,c_limit/beer_113162.jpg'
p513
aa(lp514
S'Brooklyn Lager Can '
p515
aNaF5.2
aI1
aI100
aI0
ag43
aa(lp516
S'Sierra Nevada Ruthless Ry'
p517
aS'159987'
p518
aF5.8
aI1
aF40.0
aI0
aS'http://res.cloudinary.com/ratebeer/image/upload/w_250,c_limit/beer_159987.jpg'
p519
aa(lp520
S'Spencer Trappist Ale '
p521
aS'241569'
p522
aF5.2
aI1
aF0.0
aI0
aS'http://res.cloudinary.com/ratebeer/image/upload/w_250,c_limit/beer_241569.jpg'
p523
aa(lp524
S'Oud Beersel Green Walnut '
p525
aS'348368'
p526
aF5.3
aI1
aF6.0
aF6.0
aS'http://res.cloudinary.com/ratebeer/image/upload/w_250,c_limit/beer_348368.jpg'
p527
aa(lp528
S'EWDOG HARDCORE IPA '
p529
aS'92118721'
p530
aF9.0
aI1
aI7
aI0
aS'http://res.cloudinary.com/ratebeer/image/upload/w_250,c_limit/beer_92118721.jpg'
p531
aa(lp532
S'Founders reDANKulous '
p533
aS'13354786'
p534
aF9.3
aI1
aI7
aI0
aS'http://res.cloudinary.com/ratebeer/image/upload/w_250,c_limit/beer_13354786.jpg'
p535
aa(lp536
S'OBrother The Sinner IPA '
p537
aS'359304'
p538
aF6.1
aI1
aF38.0
aI0
aS'http://res.cloudinary.com/ratebeer/image/upload/w_250,c_limit/beer_359304.jpg'
p539
aa(lp540
S'Siren Pompelmocello '
p541
aS'373520'
p542
aF3.4
aI1
aF47.0
aF3.0
aS'http://res.cloudinary.com/ratebeer/image/upload/w_250,c_limit/beer_373520.jpg'
p543
aa(lp544
S'Fourpure Pale Ale Can '
p545
aS'239274'
p546
aF5.0
aI1
aI100
aI0
aS'http://res.cloudinary.com/ratebeer/image/upload/w_250,c_limit/beer_239274.jpg'
p547
aa(lp548
S'Rodenbach Grand Cru '
p549
aS'1194'
p550
aF5.0
aI1
aI7
aF5.0
aS'http://res.cloudinary.com/ratebeer/image/upload/w_250,c_limit/beer_1194.jpg'
p551
aa(lp552
S"cks Kinsale 'KPA' "
p553
aS'217458'
p554
aF4.0
aI1
aF47.0
aI0
aS'http://res.cloudinary.com/ratebeer/image/upload/w_250,c_limit/beer_217458.jpg'
p555
aa(lp556
S'Sierra Nevada Pale Ale Can 473'
p557
aS'365'
p558
aF2.1
aI1
aF42.0
aI0
aS'http://res.cloudinary.com/ratebeer/image/upload/w_250,c_limit/beer_365.jpg'
p559
aa(lp560
S'Anchor Old Foghorn '
p561
aS'4728'
p562
aF9.5
aI1
aI7
aI0
aS'http://res.cloudinary.com/ratebeer/image/upload/w_250,c_limit/beer_4728.jpg'
p563
aa(lp564
S'Mikkeller Black Imperial '
p565
aS'4065783833'
p566
aF15.1
aI1
aI100
aI0
aS'http://res.cloudinary.com/ratebeer/image/upload/w_250,c_limit/beer_4065783833.jpg'
p567
aa(lp568
S'Dupont Biere De Miel Bio '
p569
aS'12383'
p570
aF6.7
aI1
aF0.0
aI0
aS'http://res.cloudinary.com/ratebeer/image/upload/w_250,c_limit/beer_12383.jpg'
p571
aa(lp572
S"O'HARAS STOUT "
p573
aNaF4.1
aI1
aI100
aI0
ag43
aa(lp574
S'White Hag IPA '
p575
aNaF7.2
aI1
aI100
aI0
ag43
aa(lp576
S'Sierra Nevada Hop Hunter 355'
p577
aNaF6.2
aI1
aI100
aI0
ag43
aa(lp578
S'3 Fonteinen Oude Kreik '
p579
aS'311175'
p580
aF6.3
aI1
aI7
aI0
aS'http://res.cloudinary.com/ratebeer/image/upload/w_250,c_limit/beer_311175.jpg'
p581
aa(lp582
S'Brooklyn Lager '
p583
aS'528'
p584
aF3.1
aI1
aF32.0
aI0
aS'http://res.cloudinary.com/ratebeer/image/upload/w_250,c_limit/beer_528.jpg'
p585
aa(lp586
S'Stone Barrel Brewing Boom IPA'
p587
aS'240811'
p588
aF4.8
aI1
aF33.0
aI0
aS'http://res.cloudinary.com/ratebeer/image/upload/w_250,c_limit/beer_240811.jpg'
p589
aa(lp590
S'Sierra Nevada Nooner Can'
p591
aS'307541'
p592
aF2.0
aI1
aF41.0
aI0
aS'http://res.cloudinary.com/ratebeer/image/upload/w_250,c_limit/beer_307541.jpg'
p593
aa(lp594
S'COPPER COAST RED ALE '
p595
aS'130227'
p596
aF4.1
aI1
aF7.0
aI0
aS'http://res.cloudinary.com/ratebeer/image/upload/w_250,c_limit/beer_130227.jpg'
p597
aa(lp598
S'Puck Pilsner '
p599
aS'285755'
p600
aF4.4
aI1
aF0.0
aI0
aS'http://res.cloudinary.com/ratebeer/image/upload/w_250,c_limit/beer_285755.jpg'
p601
aa(lp602
S'OBrother The Fixer Red Ale'
p603
aS'306459'
p604
aF5.4
aI1
aF36.0
aI0
aS'http://res.cloudinary.com/ratebeer/image/upload/w_250,c_limit/beer_306459.jpg'
p605
aa(lp606
S'Odells India Pale Ale '
p607
aS'70770'
p608
aF4.8
aI1
aF46.0
aI0
aS'http://res.cloudinary.com/ratebeer/image/upload/w_250,c_limit/beer_70770.jpg'
p609
aa(lp610
S'Fourpure Skyliner Wheat Summer'
p611
aS'335417'
p612
aF3.1
aI1
aF43.0
aI0
aS'http://res.cloudinary.com/ratebeer/image/upload/w_250,c_limit/beer_335417.jpg'
p613
aa(lp614
S'COOPERS SPK. ALE '
p615
aNaF5.8
aI1
aI100
aI0
ag43
aa(lp616
S'henstephaner Original Helle'
p617
aS'1593'
p618
aF1.5
aI1
aF28.0
aI0
aS'http://res.cloudinary.com/ratebeer/image/upload/w_250,c_limit/beer_1593.jpg'
p619
aa(lp620
S'Oud Beersel Schaarbeekse Oude'
p621
aS'409938'
p622
aF6.8
aI1
aF1.0
aF7.0
aS'http://res.cloudinary.com/ratebeer/image/upload/w_250,c_limit/beer_409938.jpg'
p623
aa(lp624
S'Founders Rubaeus Can '
p625
aS'46846'
p626
aF3.7
aI1
aI7
aI0
aS'http://res.cloudinary.com/ratebeer/image/upload/w_250,c_limit/beer_46846.jpg'
p627
aa(lp628
S'Chimay Doree Goud '
p629
aS'14228'
p630
aF3.3
aI1
aF4.0
aI0
aS'http://res.cloudinary.com/ratebeer/image/upload/w_250,c_limit/beer_14228.jpg'
p631
aa(lp632
S'CHIMAY RED'
p633
aS'51'
p634
aF6.1
aI1
aI7
aI0
aS'http://res.cloudinary.com/ratebeer/image/upload/w_250,c_limit/beer_51.jpg'
p635
aa(lp636
S'Anchor Christmas 2015  '
p637
aS'200552930'
p638
aF5.3
aI1
aI7
aI0
aS'http://res.cloudinary.com/ratebeer/image/upload/w_250,c_limit/beer_200552930.jpg'
p639
aa(lp640
S"Oscar Blues G'Knight Can 355M"
p641
aS'16961'
p642
aF6.6
aI1
aF7.0
aI0
aS'http://res.cloudinary.com/ratebeer/image/upload/w_250,c_limit/beer_16961.jpg'
p643
aa(lp644
S'St. Bernardus Abt 12 '
p645
aS'122530'
p646
aF10.4
aI1
aF32.0
aI0
aS'http://res.cloudinary.com/ratebeer/image/upload/w_250,c_limit/beer_122530.jpg'
p647
aa(lp648
S'Anchor Liberty Ale '
p649
aS'47'
p650
aF4.5
aI1
aF43.0
aI0
aS'http://res.cloudinary.com/ratebeer/image/upload/w_250,c_limit/beer_47.jpg'
p651
aa(lp652
S'Lagunitas Wilco Tango Foxtrot'
p653
aS'117140'
p654
aF6.9
aI1
aF8.0
aI0
aS'http://res.cloudinary.com/ratebeer/image/upload/w_250,c_limit/beer_117140.jpg'
p655
aa(lp656
S'St. Bernardus Tripel '
p657
aS'2528'
p658
aF6.7
aI1
aF4.0
aI0
aS'http://res.cloudinary.com/ratebeer/image/upload/w_250,c_limit/beer_2528.jpg'
p659
aa(lp660
S'Oud Beersel Oude Kriek '
p661
aS'10908'
p662
aF5.8
aI1
aF3.0
aF6.0
aS'http://res.cloudinary.com/ratebeer/image/upload/w_250,c_limit/beer_10908.jpg'
p663
aa(lp664
S'BrewDog Kingpin Lager Can'
p665
aS'420171'
p666
aF2.9
aI1
aF29.0
aI0
aS'http://res.cloudinary.com/ratebeer/image/upload/w_250,c_limit/beer_420171.jpg'
p667
aa(lp668
S'Founders KBS 2016 '
p669
aS'40544'
p670
aF13.2
aI1
aI7
aI0
aS'http://res.cloudinary.com/ratebeer/image/upload/w_250,c_limit/beer_40544.jpg'
p671
aa(lp672
S'BrewDog Restorative Can '
p673
aNaF8.5
aI1
aI100
aI0
ag43
aa(lp674
S'Founders Mosaic Promise '
p675
aS'226680'
p676
aF4.0
aI1
aF52.0
aI0
aS'http://res.cloudinary.com/ratebeer/image/upload/w_250,c_limit/beer_226680.jpg'
p677
aa(lp678
S'Stone Brewing Go To IPA Can 33'
p679
aS'253833'
p680
aF3.1
aI1
aF68.0
aI0
aS'http://res.cloudinary.com/ratebeer/image/upload/w_250,c_limit/beer_253833.jpg'
p681
aa(lp682
S'Brooklyn Silver Anniversary La'
p683
aS'20487331'
p684
aF8.8
aI1
aI7
aI0
aS'http://res.cloudinary.com/ratebeer/image/upload/w_250,c_limit/beer_20487331.jpg'
p685
aa(lp686
S'ewDog JackHammer '
p687
aS'178585'
p688
aF6.3
aI1
aF57.0
aI0
aS'http://res.cloudinary.com/ratebeer/image/upload/w_250,c_limit/beer_178585.jpg'
p689
aa(lp690
S'Lindemans Faro '
p691
aS'6376'
p692
aF3.9
aI1
aI7
aF4.0
aS'http://res.cloudinary.com/ratebeer/image/upload/w_250,c_limit/beer_6376.jpg'
p693
aa(lp694
S"O'Haras Notorious Red IPA"
p695
aS'396518'
p696
aF4.5
aI1
aF35.0
aI0
aS'http://res.cloudinary.com/ratebeer/image/upload/w_250,c_limit/beer_396518.jpg'
p697
aa(lp698
S'SPATEN '
p699
aNaF5.2
aI1
aI100
aI0
ag43
aa(lp700
S"Blacks Kinsale 'KPA' Can "
p701
aS'217458'
p702
aF4.0
aI1
aF47.0
aI0
aS'http://res.cloudinary.com/ratebeer/image/upload/w_250,c_limit/beer_217458.jpg'
p703
aa(lp704
S'Lagunitas Censored '
p705
aS'8829'
p706
aF4.9
aI1
aF5.0
aI0
aS'http://res.cloudinary.com/ratebeer/image/upload/w_250,c_limit/beer_8829.jpg'
p707
aa(lp708
S"O'Hara's Imperial Stout "
p709
aS'20404757'
p710
aF9.8
aI1
aI7
aI0
aS'http://res.cloudinary.com/ratebeer/image/upload/w_250,c_limit/beer_20404757.jpg'
p711
aa(lp712
S'Beavertown Smog Rocket Can 330'
p713
aS'173662'
p714
aF3.8
aI1
aI7
aI0
aS'http://res.cloudinary.com/ratebeer/image/upload/w_250,c_limit/beer_173662.jpg'
p715
aa(lp716
S'Founders Dirty Bastard '
p717
aS'11498'
p718
aF8.7
aI1
aI7
aI0
aS'http://res.cloudinary.com/ratebeer/image/upload/w_250,c_limit/beer_11498.jpg'
p719
aa(lp720
S'Lagunitas Brown Shugga '
p721
aS'8732'
p722
aF9.6
aI1
aF0.0
aI0
aS'http://res.cloudinary.com/ratebeer/image/upload/w_250,c_limit/beer_8732.jpg'
p723
aa(lp724
S'PORTERHOUSE RED '
p725
aS'11376'
p726
aF3.3
aI1
aI7
aI0
aS'http://res.cloudinary.com/ratebeer/image/upload/w_250,c_limit/beer_11376.jpg'
p727
aa(lp728
S'ewDog Bourbon Baby '
p729
aS'252097'
p730
aF5.0
aI1
aI7
aI0
aS'http://res.cloudinary.com/ratebeer/image/upload/w_250,c_limit/beer_252097.jpg'
p731
aa(lp732
S'White Gypsy Doppelbock '
p733
aS'191104'
p734
aF7.4
aI1
aI7
aI0
aS'http://res.cloudinary.com/ratebeer/image/upload/w_250,c_limit/beer_191104.jpg'
p735
aa(lp736
S'Oscar Blues Dales Pale Ale'
p737
aS'11576'
p738
aF4.7
aI1
aF37.0
aI0
aS'http://res.cloudinary.com/ratebeer/image/upload/w_250,c_limit/beer_11576.jpg'
p739
aa(lp740
S'Buried At Sea Chocolate Milk S'
p741
aNaF4.5
aI1
aI100
aI0
ag43
aa(lp742
S'To '
p743
aNaF7.0
aI1
aI100
aI0
ag43
aa(lp744
S'COOPERS PALE ALE '
p745
aS'4060'
p746
aF3.2
aI1
aF34.0
aI0
aS'http://res.cloudinary.com/ratebeer/image/upload/w_250,c_limit/beer_4060.jpg'
p747
aa(lp748
S'Brooklyn Intensified Coffee Po'
p749
aNaF11.8
aI1
aI100
aI0
ag43
aa(lp750
S'Lagunitas Aunt Sally '
p751
aS'393630'
p752
aF3.4
aI1
aF40.0
aF4.0
aS'http://res.cloudinary.com/ratebeer/image/upload/w_250,c_limit/beer_393630.jpg'
p753
aa(lp754
S'BrewDog Ship Wreck '
p755
aS'407871'
p756
aF14.5
aI1
aI7
aI0
aS'http://res.cloudinary.com/ratebeer/image/upload/w_250,c_limit/beer_407871.jpg'
p757
aa(lp758
S'Brooklyn East India Pale '
p759
aS'530'
p760
aF5.2
aI1
aF35.0
aI0
aS'http://res.cloudinary.com/ratebeer/image/upload/w_250,c_limit/beer_530.jpg'
p761
aa(lp762
S'OBrother The Chancer APA '
p763
aS'306458'
p764
aF5.3
aI1
aF38.0
aI0
aS'http://res.cloudinary.com/ratebeer/image/upload/w_250,c_limit/beer_306458.jpg'
p765
aa(lp766
S'Yeastie Boys Digital IPA '
p767
aS'2015330111'
p768
aF5.5
aI1
aI7
aI0
aS'http://res.cloudinary.com/ratebeer/image/upload/w_250,c_limit/beer_2015330111.jpg'
p769
aa(lp770
S'Beavertown Black Betty C '
p771
aS'191161'
p772
aF6.2
aI1
aF34.0
aI0
aS'http://res.cloudinary.com/ratebeer/image/upload/w_250,c_limit/beer_191161.jpg'
p773
aa(lp774
S'TRIPEL KARMELIET '
p775
aS'5368'
p776
aF7.0
aI1
aI7
aI0
aS'http://res.cloudinary.com/ratebeer/image/upload/w_250,c_limit/beer_5368.jpg'
p777
aa(lp778
S'Third Circle Samhradh '
p779
aS'427352'
p780
aF4.4
aI1
aF5.0
aI0
aS'http://res.cloudinary.com/ratebeer/image/upload/w_250,c_limit/beer_427352.jpg'
p781
aa(lp782
S'BUDEJOVICKY BOT '
p783
aNaF5.0
aI1
aI100
aI0
ag43
aa(lp784
S'Sierra Nevada Porter '
p785
aS'366'
p786
aF4.4
aI1
aI7
aI0
aS'http://res.cloudinary.com/ratebeer/image/upload/w_250,c_limit/beer_366.jpg'
p787
aa(lp788
S'BrewDog Dead Pony Club '
p789
aS'172207'
p790
aF1.3
aI1
aF48.0
aI0
aS'http://res.cloudinary.com/ratebeer/image/upload/w_250,c_limit/beer_172207.jpg'
p791
aa(lp792
S'CELEBRATION STOUT'
p793
aS'2010145625'
p794
aF6.8
aI1
aI7
aI0
aS'http://res.cloudinary.com/ratebeer/image/upload/w_250,c_limit/beer_2010145625.jpg'
p795
aa(lp796
S'BLACK ROCK STOUT '
p797
aS'128477'
p798
aF3.6
aI1
aI7
aI0
aS'http://res.cloudinary.com/ratebeer/image/upload/w_250,c_limit/beer_128477.jpg'
p799
aa(lp800
S'Brooklyn Wild Streak '
p801
aS'250350'
p802
aF9.4
aI1
aI7
aF3.0
aS'http://res.cloudinary.com/ratebeer/image/upload/w_250,c_limit/beer_250350.jpg'
p803
aa(lp804
S'Odells The Meddler '
p805
aS'185267'
p806
aF7.8
aI1
aI7
aF6.0
aS'http://res.cloudinary.com/ratebeer/image/upload/w_250,c_limit/beer_185267.jpg'
p807
aa(lp808
S'Fourpure Session IPA Can '
p809
aS'238308'
p810
aF1.3
aI1
aF49.0
aI0
aS'http://res.cloudinary.com/ratebeer/image/upload/w_250,c_limit/beer_238308.jpg'
p811
aa(lp812
S'Brooklyn Black Chocolate '
p813
aS'531'
p814
aF9.1
aI1
aI7
aI0
aS'http://res.cloudinary.com/ratebeer/image/upload/w_250,c_limit/beer_531.jpg'
p815
aa(lp816
S'Ranke Hop Harvest 2015 750M'
p817
aS'2014295735'
p818
aF5.8
aI1
aI7
aI0
aS'http://res.cloudinary.com/ratebeer/image/upload/w_250,c_limit/beer_2014295735.jpg'
p819
aa(lp820
S'BRAINBLASTA '
p821
aNaF7.0
aI1
aI100
aI0
ag43
aa(lp822
S'Anchor Saison Spring Ale '
p823
aS'254031'
p824
aF6.0
aI1
aI7
aI0
aS'http://res.cloudinary.com/ratebeer/image/upload/w_250,c_limit/beer_254031.jpg'
p825
aa(lp826
S'Sierra Nevada Bigfoot 2015 350'
p827
aS'371'
p828
aF10.0
aI1
aF7.0
aI0
aS'http://res.cloudinary.com/ratebeer/image/upload/w_250,c_limit/beer_371.jpg'
p829
aa(lp830
S'Oscar Blues Pinner Passion Fru'
p831
aS'436427'
p832
aF2.7
aI1
aF46.0
aI0
aS'http://res.cloudinary.com/ratebeer/image/upload/w_250,c_limit/beer_436427.jpg'
p833
aa(lp834
S'MAY WHITE '
p835
aNaF8.0
aI1
aI100
aI0
ag43
aa(lp836
S'Whiplash Rollover Session IPA'
p837
aS'412929'
p838
aF3.6
aI1
aF47.0
aI0
aS'http://res.cloudinary.com/ratebeer/image/upload/w_250,c_limit/beer_412929.jpg'
p839
aa(lp840
S'Ska Brewing Rudie Session IPA'
p841
aS'280927'
p842
aF1.5
aI1
aF41.0
aI0
aS'http://res.cloudinary.com/ratebeer/image/upload/w_250,c_limit/beer_280927.jpg'
p843
aa(lp844
S'Stone Arrogant Bastard Can 500'
p845
aNaF7.2
aI1
aI100
aI0
ag43
aa(lp846
S'FRANZISKANER HEFE '
p847
aS'1088'
p848
aF2.6
aI1
aI7
aI0
aS'http://res.cloudinary.com/ratebeer/image/upload/w_250,c_limit/beer_1088.jpg'
p849
aa(lp850
S'Schneider Tap X Maries Rendezv'
p851
aS'398355'
p852
aF8.4
aI1
aI7
aI0
aS'http://res.cloudinary.com/ratebeer/image/upload/w_250,c_limit/beer_398355.jpg'
p853
aa(lp854
S'Metalman Pale Ale Can '
p855
aS'142591'
p856
aF2.8
aI1
aF48.0
aI0
aS'http://res.cloudinary.com/ratebeer/image/upload/w_250,c_limit/beer_142591.jpg'
p857
aa(lp858
S'Beavertown 8 Ball Can '
p859
aS'8173659'
p860
aF6.0
aI1
aI7
aI0
aS'http://res.cloudinary.com/ratebeer/image/upload/w_250,c_limit/beer_8173659.jpg'
p861
aa(lp862
S'Leffe Blonde '
p863
aS'2514'
p864
aF5.6
aI1
aI7
aI0
aS'http://res.cloudinary.com/ratebeer/image/upload/w_250,c_limit/beer_2514.jpg'
p865
aa(lp866
S'Founders Rubaeus '
p867
aS'46846'
p868
aF3.7
aI1
aI7
aI0
aS'http://res.cloudinary.com/ratebeer/image/upload/w_250,c_limit/beer_46846.jpg'
p869
aa(lp870
S"Oscar Blues Mama's Little Yell"
p871
aS'68419'
p872
aF2.7
aI1
aF38.0
aI0
aS'http://res.cloudinary.com/ratebeer/image/upload/w_250,c_limit/beer_68419.jpg'
p873
aa(lp874
S'Trouble Brewing Deception'
p875
aS'247307'
p876
aF2.2
aI1
aF35.0
aI0
aS'http://res.cloudinary.com/ratebeer/image/upload/w_250,c_limit/beer_247307.jpg'
p877
aa(lp878
S'Anchor Zymaster No. 6 '
p879
aS'6277714'
p880
aF5.8
aI1
aI7
aI0
aS'http://res.cloudinary.com/ratebeer/image/upload/w_250,c_limit/beer_6277714.jpg'
p881
aa(lp882
S"O'Haras Hop Adventure "
p883
aNaF5.0
aI1
aI100
aI0
ag43
aa(lp884
S'Founders Breakfast Stout '
p885
aS'14956'
p886
aF8.0
aI1
aI7
aI0
aS'http://res.cloudinary.com/ratebeer/image/upload/w_250,c_limit/beer_14956.jpg'
p887
aa(lp888
S'BrewDog Jet Black Heart '
p889
aS'395517'
p890
aF4.1
aI1
aI7
aI0
aS'http://res.cloudinary.com/ratebeer/image/upload/w_250,c_limit/beer_395517.jpg'
p891
aa(lp892
S'WESTMALLE DUBBEL '
p893
aS'2205'
p894
aF6.4
aI1
aI7
aI0
aS'http://res.cloudinary.com/ratebeer/image/upload/w_250,c_limit/beer_2205.jpg'
p895
aa(lp896
S'Siren 5'
p897
aS'5439991'
p898
aF7.2
aI1
aI7
aI0
aS'http://res.cloudinary.com/ratebeer/image/upload/w_250,c_limit/beer_5439991.jpg'
p899
aa(lp900
S'Deus '
p901
aNaF11.5
aI1
aI100
aI0
ag43
aa(lp902
S'Stormy Port Irish Porter '
p903
aS'164660'
p904
aF4.4
aI1
aI7
aI0
aS'http://res.cloudinary.com/ratebeer/image/upload/w_250,c_limit/beer_164660.jpg'
p905
aa(lp906
S'Dupont Avec Bons Voeux '
p907
aS'11047'
p908
aF8.7
aI1
aF5.0
aI0
aS'http://res.cloudinary.com/ratebeer/image/upload/w_250,c_limit/beer_11047.jpg'
p909
aa(lp910
S'3 Fonteinen Oude Kreik'
p911
aS'311175'
p912
aF5.3
aI1
aI7
aI0
aS'http://res.cloudinary.com/ratebeer/image/upload/w_250,c_limit/beer_311175.jpg'
p913
aa(lp914
S'Sierra Nevada Pale Ale '
p915
aS'365'
p916
aF2.1
aI1
aF42.0
aI0
aS'http://res.cloudinary.com/ratebeer/image/upload/w_250,c_limit/beer_365.jpg'
p917
aa(lp918
S'Wicklow Wolf Kentucky Com'
p919
aS'300882'
p920
aF4.8
aI1
aI7
aF1.0
aS'http://res.cloudinary.com/ratebeer/image/upload/w_250,c_limit/beer_300882.jpg'
p921
aa(lp922
S'La Chouffe Houblon Triple IPA'
p923
aS'56757'
p924
aF7.6
aI1
aF38.0
aI0
aS'http://res.cloudinary.com/ratebeer/image/upload/w_250,c_limit/beer_56757.jpg'
p925
aa(lp926
S'Lagunitas Pale Ale '
p927
aS'86876'
p928
aF3.5
aI1
aF48.0
aI0
aS'http://res.cloudinary.com/ratebeer/image/upload/w_250,c_limit/beer_86876.jpg'
p929
aa(lp930
S'PORTERHOUSE PLAIN '
p931
aS'11378'
p932
aF3.1
aI1
aI7
aI0
aS'http://res.cloudinary.com/ratebeer/image/upload/w_250,c_limit/beer_11378.jpg'
p933
aa(lp934
S'VICTORY STORM KING '
p935
aS'626'
p936
aF9.1
aI1
aF2.0
aI0
aS'http://res.cloudinary.com/ratebeer/image/upload/w_250,c_limit/beer_626.jpg'
p937
aa(lp938
S'Lagunitas Lucky 13 '
p939
aS'1370324'
p940
aF8.6
aI1
aI7
aI0
aS'http://res.cloudinary.com/ratebeer/image/upload/w_250,c_limit/beer_1370324.jpg'
p941
aa(lp942
S'Stone IPA Can '
p943
aS'422'
p944
aF4.9
aI1
aF46.0
aI0
aS'http://res.cloudinary.com/ratebeer/image/upload/w_250,c_limit/beer_422.jpg'
p945
aa(lp946
S'Founders Sumatra Mountain Brow'
p947
aS'135773'
p948
aF8.7
aI1
aI7
aI0
aS'http://res.cloudinary.com/ratebeer/image/upload/w_250,c_limit/beer_135773.jpg'
p949
aa(lp950
S'Beavertown Neck Oil Can 330'
p951
aNaF4.3
aI1
aI100
aI0
ag43
aa(lp952
S'Thornbridge Eldon '
p953
aS'395400'
p954
aF7.1
aI1
aI7
aI0
aS'http://res.cloudinary.com/ratebeer/image/upload/w_250,c_limit/beer_395400.jpg'
p955
aa(lp956
S'White Hag Wit '
p957
aS'285032'
p958
aF3.9
aI1
aF6.0
aI0
aS'http://res.cloudinary.com/ratebeer/image/upload/w_250,c_limit/beer_285032.jpg'
p959
aa(lp960
S'Sierra Nevada Torpedo Can 355M'
p961
aNaF7.2
aI1
aI100
aI0
ag43
aa(lp962
S'Sierra Nevada Barrel Aged Bigf'
p963
aS'65123'
p964
aF13.1
aI1
aI7
aI0
aS'http://res.cloudinary.com/ratebeer/image/upload/w_250,c_limit/beer_65123.jpg'
p965
aa(lp966
S'Trouble Brewing Sabotage IPA'
p967
aS'199923'
p968
aF5.1
aI1
aF36.0
aI0
aS'http://res.cloudinary.com/ratebeer/image/upload/w_250,c_limit/beer_199923.jpg'
p969
aa(lp970
S"Odell's Lugene Choco Milk Stou"
p971
aS'194215'
p972
aF7.0
aI1
aI7
aI0
aS'http://res.cloudinary.com/ratebeer/image/upload/w_250,c_limit/beer_194215.jpg'
p973
aa(lp974
S'Brooklyn Sorachi  Ace'
p975
aS'107007'
p976
aF5.6
aI1
aF41.0
aI0
aS'http://res.cloudinary.com/ratebeer/image/upload/w_250,c_limit/beer_107007.jpg'
p977
aa(lp978
S'Sierra Nevada Torpedo '
p979
aS'59261'
p980
aF6.7
aI1
aF41.0
aI0
aS'http://res.cloudinary.com/ratebeer/image/upload/w_250,c_limit/beer_59261.jpg'
p981
aa(lp982
S'Anchor Steam Beer '
p983
aS'46'
p984
aF1.9
aI1
aF29.0
aI0
aS'http://res.cloudinary.com/ratebeer/image/upload/w_250,c_limit/beer_46.jpg'
p985
aa(lp986
S'Veltins Pilsner '
p987
aS'4040'
p988
aF3.2
aI1
aF35.0
aI0
aS'http://res.cloudinary.com/ratebeer/image/upload/w_250,c_limit/beer_4040.jpg'
p989
aa(lp990
S'WESTMALLE TRIPEL '
p991
aS'2204'
p992
aF8.6
aI1
aF5.0
aI0
aS'http://res.cloudinary.com/ratebeer/image/upload/w_250,c_limit/beer_2204.jpg'
p993
aa(lp994
S'White Gypsy American Pale'
p995
aS'191401'
p996
aF7.2
aI1
aF41.0
aI0
aS'http://res.cloudinary.com/ratebeer/image/upload/w_250,c_limit/beer_191401.jpg'
p997
aa(lp998
S"Rascal's Big Hop Red Can "
p999
aS'272857'
p1000
aF5.0
aI1
aF31.0
aI0
aS'http://res.cloudinary.com/ratebeer/image/upload/w_250,c_limit/beer_272857.jpg'
p1001
aa(lp1002
S'Oud Beersel Oude Geuze '
p1003
aS'10907'
p1004
aF5.0
aI1
aF31.0
aF6.0
aS'http://res.cloudinary.com/ratebeer/image/upload/w_250,c_limit/beer_10907.jpg'
p1005
aa(lp1006
S'BrewDog Vagabond P A '
p1007
aS'304469'
p1008
aF1.7
aI1
aF38.0
aI0
aS'http://res.cloudinary.com/ratebeer/image/upload/w_250,c_limit/beer_304469.jpg'
p1009
aa(lp1010
S'Lagunitas The Down Low '
p1011
aS'425022'
p1012
aF3.3
aI1
aF52.0
aI0
aS'http://res.cloudinary.com/ratebeer/image/upload/w_250,c_limit/beer_425022.jpg'
p1013
aa(lp1014
S'Beavertown Gamma Ray Can'
p1015
aS'189363'
p1016
aF2.4
aI1
aF51.0
aI0
aS'http://res.cloudinary.com/ratebeer/image/upload/w_250,c_limit/beer_189363.jpg'
p1017
aa(lp1018
S'Anderson V Brother David '
p1019
aS'34081'
p1020
aF10.4
aI1
aI7
aI0
aS'http://res.cloudinary.com/ratebeer/image/upload/w_250,c_limit/beer_34081.jpg'
p1021
aa(lp1022
S"O'HARAS LEANN FOLLAIN "
p1023
aS'100788'
p1024
aF5.2
aI1
aI7
aI0
aS'http://res.cloudinary.com/ratebeer/image/upload/w_250,c_limit/beer_100788.jpg'
p1025
aa(lp1026
S'3 Fonteinen Oude Geuze '
p1027
aS'311168'
p1028
aF6.0
aI1
aI7
aI0
aS'http://res.cloudinary.com/ratebeer/image/upload/w_250,c_limit/beer_311168.jpg'
p1029
aa(lp1030
S'Ska Brewing Modus Mandarina 35'
p1031
aS'260630'
p1032
aF6.2
aI1
aF43.0
aI0
aS'http://res.cloudinary.com/ratebeer/image/upload/w_250,c_limit/beer_260630.jpg'
p1033
aa(lp1034
S'BrewDog Punk IPA Can '
p1035
aS'56135361'
p1036
aF5.4
aI1
aI7
aI0
aS'http://res.cloudinary.com/ratebeer/image/upload/w_250,c_limit/beer_56135361.jpg'
p1037
aa(lp1038
S"O'HARAS IRISH PALE ALE "
p1039
aS'126380'
p1040
aF3.9
aI1
aF41.0
aI0
aS'http://res.cloudinary.com/ratebeer/image/upload/w_250,c_limit/beer_126380.jpg'
p1041
aa(lp1042
S'Blacks Kinsale EquinoxIPA 330M'
p1043
aNaF5.5
aI1
aI100
aI0
ag43
aa.