(lp0
(lp1
(lp2
S'185.7.184.174'
p3
aS'Leinster'
p4
aS'[7.5, 16, 12, 0]'
p5
aa(lp6
S'185.7.144.134'
p7
ag4
aS'[8, 15, 13, 4]'
p8
aa(lp9
S'325.7.184.234'
p10
aS'Ulster'
p11
aS'[5, 27, 11, 0]'
p12
aa(lp13
S'345.7.184.174'
p14
ag11
aS'[4.5, 28, 12, 0]'
p15
aa(lp16
S'435.7.184.174'
p17
aS'Munster'
p18
aS'[10, 18, 19, 0]'
p19
aa(lp20
S'485.7.184.174'
p21
ag18
aS'[12, 21, 21, 0]'
p22
aa(lp23
S'231.7.184.174'
p24
aS'Connaught'
p25
aS'[7, 15, 15, 0]'
p26
aa(lp27
S'285.7.184.174'
p28
ag25
aS'[8, 16, 13, 0]'
p29
aaa(dp30
VKNOCKMEALDOWN PORTER 
p31
(lp32
F4.8
aF7.0
aI32
aI0
aVhttp://res.cloudinary.com/ratebeer/image/upload/w_250,c_limit/beer_160562.jpg
p33
asVSierra Nevada Pale Ale 
p34
(lp35
F2.1
aF42.0
aI4
aI0
aVhttp://res.cloudinary.com/ratebeer/image/upload/w_250,c_limit/beer_365.jpg
p36
asVSka Brewing Decadent IPA Can
p37
(lp38
F10.0
aF32.0
aI8
aI0
aVhttp://res.cloudinary.com/ratebeer/image/upload/w_250,c_limit/beer_43088.jpg
p39
asVLa Trappe Tripel 
p40
(lp41
F8.0
aF7.0
aI8
aI0
aVhttp://res.cloudinary.com/ratebeer/image/upload/w_250,c_limit/beer_4564.jpg
p42
asVBoon Oude Geuze Black Label
p43
(lp44
F6.0
aF7.0
aI3
aI6
aVhttp://res.cloudinary.com/ratebeer/image/upload/w_250,c_limit/beer_367485.jpg
p45
asVBlacks Kinsale Equinox
p46
(lp47
F5.5
aF100.0
aI5
aI0
aVhttp://media.istockphoto.com/photos/beer-bottle-picture-id175533358?k=6&m=175533358&s=170667a&w=0&h=de2hI2j7Ie8LiNCvkRlS-wwxhChsggEDoX9SDagZnAY=
p48
asVO'HARAS IRISH RED 
p49
(lp50
F2.9
aF25.0
aI9
aI0
aVhttp://res.cloudinary.com/ratebeer/image/upload/w_250,c_limit/beer_44140.jpg
p51
asVFounders Devil Dancer 
p52
(lp53
F11.6
aF32.0
aI21
aI0
aVhttp://res.cloudinary.com/ratebeer/image/upload/w_250,c_limit/beer_34518.jpg
p54
asVAnchor Christmas 2015 
p55
(lp56
F5.3
aF36.0
aI19
aI0
aVhttps://2fdltvvn8wp2rn64ywgk8o17-wpengine.netdna-ssl.com/wp-content/uploads/2015/01/anchor-christmas-ale-2014.png
p57
asVSiren Maiden 
p58
(lp59
F10.8
aF14.0
aI27
aI0
aVhttp://i.imgur.com/6a7qzDw.jpg
p60
asVBrewDog Elvis Juice 
p61
(lp62
F6.3
aF55.0
aI5
aI0
aVhttp://i.imgur.com/tY9usyK.jpg
p63
asVOud Beersel Framboise 
p64
(lp65
F3.6
aF7.0
aI9
aI4
aVhttp://res.cloudinary.com/ratebeer/image/upload/w_250,c_limit/beer_49975.jpg
p66
asVPorterhouse Celebration Stout
p67
(lp68
F6.8
aF20.0
aI35
aI0
aVhttp://res.cloudinary.com/ratebeer/image/upload/w_250,c_limit/beer_145625.jpg
p69
asVBeavertown Black Betty
p70
(lp71
F6.2
aF34.0
aI35
aI0
aVhttp://res.cloudinary.com/ratebeer/image/upload/w_250,c_limit/beer_191161.jpg
p72
asVKrombacher Pils Can 
p73
(lp74
F2.8
aF10.0
aI4
aI0
aVhttp://res.cloudinary.com/ratebeer/image/upload/w_250,c_limit/beer_3370.jpg
p75
asVSierra Nevada Ruthless Rye
p76
(lp77
F5.8
aF40.0
aI11
aI0
aVhttp://res.cloudinary.com/ratebeer/image/upload/w_250,c_limit/beer_159987.jpg
p78
asVOdells Fernet Aged Porter
p79
(lp80
F9.4
aF12.0
aI35
aI0
aVhttp://www.beersofeurope.co.uk/media/catalog/product/cache/1/image/9df78eab33525d08d6e5fb8d27136e95/pimages/OdellFernetAgedPorter.jpg
p81
asVOscar Blues Old Chub
p82
(lp83
F7.1
aF23.0
aI14
aI0
aVhttp://res.cloudinary.com/ratebeer/image/upload/w_250,c_limit/beer_11579.jpg
p84
asVBrooklyn Blast Ale 
p85
(lp86
F7.7
aF38.0
aI4
aI0
aVhttp://res.cloudinary.com/ratebeer/image/upload/w_250,c_limit/beer_51334.jpg
p87
asVSamuel Adams Boston Lager
p88
(lp89
F2.6
aF31.0
aI4
aI0
aVhttp://res.cloudinary.com/ratebeer/image/upload/w_250,c_limit/beer_158.jpg
p90
asVBzat Kriekenlambiek Oud Beerse
p91
(lp92
F8.0
aF1.0
aI6
aI6
aVhttp://res.cloudinary.com/ratebeer/image/upload/w_250,c_limit/beer_184275.jpg
p93
asVStone Brewing Ruination IPA Ca
p94
(lp95
F7.1
aF79.0
aI3
aI0
aVhttp://res.cloudinary.com/ratebeer/image/upload/w_250,c_limit/beer_14709.jpg
p96
asVMOOSEHEAD 
p97
(lp98
F5.0
aF12.0
aI2
aI0
aVhttp://www.moosehead.de/files/photos/moosehead-de-goodyfood-klaus-kunze-moosehead-lager-large.png
p99
asVSierra Nevada Hoptimum 
p100
(lp101
F10.2
aF89.0
aI5
aI0
aVhttp://res.cloudinary.com/ratebeer/image/upload/w_250,c_limit/beer_117825.jpg
p102
asVWicklow Wolf IPA 
p103
(lp104
F6.4
aF42.0
aI4
aI0
aVhttp://res.cloudinary.com/ratebeer/image/upload/w_250,c_limit/beer_303283.jpg
p105
asVCURIM 
p106
(lp107
F2.7
aF14.0
aI3
aI0
aVhttp://res.cloudinary.com/ratebeer/image/upload/w_250,c_limit/beer_4941.jpg
p108
asVCamden Town IHL Barrel Aged 66
p109
(lp110
F7.3
aF28.0
aI15
aI0
aVhttp://res.cloudinary.com/ratebeer/image/upload/w_250,c_limit/beer_316205.jpg
p111
asVRascal's Wunderbar IPA
p112
(lp113
F5.7
aF32.0
aI3
aI0
aVhttp://www.martinsofflicence.ie/cms/images/260x510_p1469807501849_wunderbar_render.jpg
p114
asVSt. Bernardus Tripel 
p115
(lp116
F6.7
aF9.0
aI3
aI0
aVhttp://res.cloudinary.com/ratebeer/image/upload/w_250,c_limit/beer_2528.jpg
p117
asVChapeau Cuvee Oude Geuze 
p118
(lp119
F3.5
aF6.0
aI3
aI7
aVhttp://res.cloudinary.com/ratebeer/image/upload/w_250,c_limit/beer_6241.jpg
p120
asVO'Hara's Double IPA 
p121
(lp122
F5.6
aF31.0
aI4
aI0
aVhttp://res.cloudinary.com/ratebeer/image/upload/w_250,c_limit/beer_204890.jpg
p123
asVLagunitas Equinox 
p124
(lp125
F7.5
aF35.0
aI8
aI0
aVhttps://s-media-cache-ak0.pinimg.com/originals/14/fb/bd/14fbbd3dca6239a9b85ad1b6aaef6977.png
p126
asVLa Trappe Blonde 
p127
(lp128
F5.8
aF7.0
aI4
aI0
aVhttp://res.cloudinary.com/ratebeer/image/upload/w_250,c_limit/beer_10380.jpg
p129
asVBoon Framboise 
p130
(lp131
F5.0
aF7.0
aI9
aI3
aVhttp://res.cloudinary.com/ratebeer/image/upload/w_250,c_limit/beer_4430.jpg
p132
asVOscar Blues Pinner Throwback I
p133
(lp134
F2.2
aF44.0
aI4
aI0
aVhttp://res.cloudinary.com/ratebeer/image/upload/w_250,c_limit/beer_305178.jpg
p135
asVBrewdog Hardcore IPA
p136
(lp137
F9.0
aF67.0
aI4
aI0
aVhttp://res.cloudinary.com/ratebeer/image/upload/w_250,c_limit/beer_118721.jpg
p138
asVBzat Lambiek Oud Beersel 
p139
(lp140
F6.8
aF29.0
aI3
aI7
ag93
asVSierra Nevada Barrel Aged Bigf
p141
(lp142
F13.1
aF35.0
aI19
aI0
aVhttp://res.cloudinary.com/ratebeer/image/upload/w_250,c_limit/beer_65123.jpg
p143
asVDungarvan Mine Head 
p144
(lp145
F5.5
aF34.0
aI5
aI0
aVhttp://dungarvanbrewingcompany.com/wp-content/uploads/2012/10/mine_big.png
p146
asVLeft Hand Wake Up Dead 
p147
(lp148
F9.5
aF34.0
aI30
aI0
aVhttp://lefthandbrewing.com/wp/wp-content/uploads/2013/06/wakeupdead1.png
p149
asVSiren White Tips 
p150
(lp151
F2.3
aF20.0
aI2
aI0
aVhttp://i.imgur.com/CFHyvMI.jpg
p152
asVOdells Trellis Garden
p153
(lp154
F8.3
aF35.0
aI8
aI0
aVhttp://res.cloudinary.com/ratebeer/image/upload/w_250,c_limit/beer_274475.jpg
p155
asVFourpure Oatmeal Stout
p156
(lp157
F4.9
aF27.0
aI33
aI0
aVhttps://www.beermerchants.com/media/catalog/product/f/o/four_pure_oatmeal_stout.png
p158
asVBrewDog JackHammer Can 
p159
(lp160
F6.3
aF57.0
aI5
aI0
aVhttp://res.cloudinary.com/ratebeer/image/upload/w_250,c_limit/beer_178585.jpg
p161
asVLittle Creatures Pale Ale 330M
p162
(lp163
F3.1
aF40.0
aI4
aI0
aVhttp://res.cloudinary.com/ratebeer/image/upload/w_250,c_limit/beer_7658.jpg
p164
asVMikkeller Raspberry Trippelboc
p165
(lp166
F13.0
aF15.0
aI7
aI0
aVhttp://res.cloudinary.com/ratebeer/image/upload/w_250,c_limit/beer_317889.jpg
p167
asVThird Circle Samhradh 
p168
(lp169
F4.4
aF16.0
aI4
aI0
ag48
asVBay Ale Irish Red Ale 
p170
(lp171
F4.3
aF29.0
aI7
aI0
aVhttp://noreast.ie/Content/Images/Beers/galwaybay_bay_ale.jpg
p172
asVCHIMAY BLUE GRANDE RES
p173
(lp174
F8.8
aF12.0
aI14
aI0
aVhttp://res.cloudinary.com/ratebeer/image/upload/w_250,c_limit/beer_53.jpg
p175
asVMikkeller Spontan Cherry 
p176
(lp177
F6.6
aF7.0
aI10
aI4
aVhttp://res.cloudinary.com/ratebeer/image/upload/w_250,c_limit/beer_205607.jpg
p178
asVChimay White
p179
(lp180
F8.0
aF11.0
aI4
aI0
aVhttp://res.cloudinary.com/ratebeer/image/upload/w_250,c_limit/beer_52.jpg
p181
asVKinnegar Brewing Yannaroddy
p182
(lp183
F4.4
aF28.0
aI35
aI0
aVhttp://www.martinsofflicence.ie/cms/images/737x737_p1395749582350_kinnegar_yannaroddy_porter..jpg
p184
asVOud Beersel Schaarbeekse Oude
p185
(lp186
F6.8
aF1.0
aI3
aI7
aVhttp://res.cloudinary.com/ratebeer/image/upload/w_250,c_limit/beer_409938.jpg
p187
asVAnchor Porter 
p188
(lp189
F4.6
aF35.0
aI36
aI0
aVhttp://res.cloudinary.com/ratebeer/image/upload/w_250,c_limit/beer_48.jpg
p190
asVLeft Hand Smokejumper 
p191
(lp192
F7.4
aF34.0
aI23
aI0
aVhttp://res.cloudinary.com/ratebeer/image/upload/w_250,c_limit/beer_65635.jpg
p193
asVBrewDog JackHammer 
p194
(lp195
F6.3
aF57.0
aI6
aI0
ag161
asVBrewDog Cocoa Psycho
p196
(lp197
F10.0
aF15.0
aI26
aI0
aVhttp://www.worldbeerawards.com/media/bottles/23476-120x400.jpg
p198
asVBlackJack Drogheda Cream 
p199
(lp200
F4.6
aF18.0
aI5
aI0
aVhttp://www.martinsofflicence.ie/cms/images/260x510_p1425993781860_jack-codys-black-jack,-drogheda-cream-stout-3.jpg
p201
asVBrewDog 5AM Saint 
p202
(lp203
F4.8
aF56.0
aI11
aI0
aVhttp://beerstore.com.au/wp-content/uploads/2015/10/brewdog-5am-saint-beer-online-1378101233.jpg
p204
asVAsahi 
p205
(lp206
F5.0
aF14.0
aI3
aI0
aVhttp://www.odonovansofflicence.com/wp-content/uploads/2016/03/BEBTASAH5001.jpeg
p207
asVLindemans Cuvee Rene Oude Gueze
p208
(lp209
F5.8
aF7.0
aI3
aI6
aVhttp://www.merchantduvin.com/images/i-lindemans-cuvee-rene-gueuze-lambic.png
p210
asVThornbridge HALL Double Scotch
p211
(lp212
F7.7
aF7.0
aI9
aI0
aVhttp://www.beergonzo.co.uk/pictures/3a90fb6b-b4a2-484c-98d8-bb7b1a0d9c9a.jpg
p213
asVBREWDOG PUNK IPA 
p214
(lp215
F5.4
aF45.0
aI4
aI0
aVhttps://www.shoppersvineyard.com/images/labels/brewdog-punk-ipa.gif
p216
asVFounders Centennial IPA 
p217
(lp218
F5.4
aF36.0
aI4
aI0
aVhttp://res.cloudinary.com/ratebeer/image/upload/w_250,c_limit/beer_3168.jpg
p219
asVBoon Geuze 
p220
(lp221
F4.6
aF29.0
aI3
aI6
aVhttp://res.cloudinary.com/ratebeer/image/upload/w_250,c_limit/beer_4631.jpg
p222
asVOdells Footprint 
p223
(lp224
F9.4
aF44.0
aI15
aI0
aVhttp://beerstreetjournal.com/wp-content/uploads/Screen-Shot-2012-01-31-at-12.09.31-PM.png
p225
asVAnchor IPA 
p226
(lp227
F6.5
aF55.0
aI4
aI0
aVhttps://cdn.beeradvocate.com/im/beers/112128.jpg
p228
asVLagunitas IPA 
p229
(lp230
F4.5
aF40.0
aI3
aI0
aVhttp://res.cloudinary.com/ratebeer/image/upload/w_250,c_limit/beer_6887.jpg
p231
asVCHIMAY RED PREMIERE 
p232
(lp233
F6.1
aF9.0
aI11
aI0
aVhttp://res.cloudinary.com/ratebeer/image/upload/w_250,c_limit/beer_51.jpg
p234
asVBrooklyn Monster Ale 
p235
(lp236
F11.1
aF24.0
aI9
aI0
aVhttp://brooklynbrewery.com/system/beers/11_shelf_monsterale_original.png?1421879941
p237
asVLindemans Spontanbasil 750
p238
(lp239
F4.6
aF2.0
aI3
aI6
aVhttp://res.cloudinary.com/ratebeer/image/upload/w_250,c_limit/beer_331545.jpg
p240
asVBrewDog Punk IPA
p241
(lp242
F5.4
aF7.0
aI4
aI0
ag216
asVStone Brewing Go To IPA Can 33
p243
(lp244
F3.1
aF68.0
aI3
aI0
aVhttp://res.cloudinary.com/ratebeer/image/upload/w_250,c_limit/beer_253833.jpg
p245
asVBrewDog Black Eyed King Imp 33
p246
(lp247
F13.5
aF18.0
aI34
aI0
aVhttp://res.cloudinary.com/ratebeer/image/upload/w_250,c_limit/beer_369326.jpg
p248
asVBoon Kreik Mariage Parfai
p249
(lp250
F6.7
aF2.0
aI3
aI5
aVhttp://res.cloudinary.com/ratebeer/image/upload/w_250,c_limit/beer_6924.jpg
p251
asVCHIMAY WHITE CINQ CENTS 
p252
(lp253
F6.8
aF14.0
aI4
aI0
ag181
asVThornbridge HALL Sour Brown 50
p254
(lp255
F7.1
aF2.0
aI16
aI5
aVhttp://res.cloudinary.com/ratebeer/image/upload/w_250,c_limit/beer_97342.jpg
p256
asVBrooklyn Hand 
p257
(lp258
F14.3
aF33.0
aI18
aI0
aVhttp://brooklynbrewery.com/system/beers/49_shelf_HandSeal-750ml-Website-LR_original.png?1442434934
p259
asVBrooklyn Local 2 
p260
(lp261
F8.7
aF33.0
aI5
aI0
aVhttp://res.cloudinary.com/ratebeer/image/upload/w_250,c_limit/beer_96545.jpg
p262
asVWEIHENSTEPHANER KRISTALL 
p263
(lp264
F2.2
aF12.0
aI2
aI0
aVhttps://m.danmurphys.com.au/media/DM/Product/750x2000/904075_0_9999_v1_m56577569839962019.jpg
p265
asVLa Trappe Dubbel 
p266
(lp267
F6.8
aF7.0
aI17
aI0
aVhttp://res.cloudinary.com/ratebeer/image/upload/w_250,c_limit/beer_4563.jpg
p268
asVSTAROPRAMEN 
p269
(lp270
F4.8
aF11.0
aI3
aI0
aVhttp://m.beerforum.co.kr/files/attach/images/1434/163/115/05e8aebc5c738d97f642cc960bb94795.jpg
p271
asVFounders Mango Magnifico 
p272
(lp273
F9.8
aF3.0
aI6
aI0
aVhttp://res.cloudinary.com/ratebeer/image/upload/w_250,c_limit/beer_219170.jpg
p274
asVBoon Kriek 
p275
(lp276
F0.8
aF2.0
aI15
aI2
aVhttp://res.cloudinary.com/ratebeer/image/upload/w_250,c_limit/beer_4505.jpg
p277
asVOud Beersel Beersalis Tripel 7
p278
(lp279
F10.3
aF9.0
aI5
aI0
aVhttp://res.cloudinary.com/ratebeer/image/upload/w_250,c_limit/beer_53967.jpg
p280
asVMetalman Heatsink 
p281
(lp282
F4.5
aF44.0
aI5
aI0
aVhttps://www.obrienswine.ie/media/catalog/product/1/5/15B169-Metalman-Heat-Sink-Porter-33cl-Can.png
p283
asVVICTORY STORM KING 
p284
(lp285
F9.1
aF36.0
aI24
aI0
aVhttp://res.cloudinary.com/ratebeer/image/upload/w_250,c_limit/beer_626.jpg
p286
asVFourpure Juicebox Citrus IPA 5
p287
(lp288
F4.4
aF54.0
aI6
aI0
aVhttp://www.martinsofflicence.ie/cms/images/260x510_p1471345856900_fourpure_juicebox_citrus_ipa_can.jpg
p289
asVCHIMAY BLUE 
p290
(lp291
F8.8
aF12.0
aI18
aI0
ag175
asVPORTERHOUSE OYSTER STOUT
p292
(lp293
F4.4
aF31.0
aI32
aI0
aVhttp://res.cloudinary.com/ratebeer/image/upload/w_250,c_limit/beer_11379.jpg
p294
asVWEIHENSTEPHANER VITUS 
p295
(lp296
F6.0
aF16.0
aI5
aI0
aVhttp://www.worldbeerawards.com/media/bottles/5382-120x400.jpg
p297
asVFounders Imperial Stout 
p298
(lp299
F10.6
aF35.0
aI37
aI0
aVhttp://res.cloudinary.com/ratebeer/image/upload/w_250,c_limit/beer_5933.jpg
p300
asVWeihenstephaner Non Alchol
p301
(lp302
F0.0
aF7.0
aI3
aI0
aVhttp://res.cloudinary.com/ratebeer/image/upload/w_250,c_limit/beer_6038.jpg
p303
asVBrewDog Nanny State 
p304
(lp305
F0.3
aF33.0
aI4
aI0
aVhttp://www.beersofeurope.co.uk/media/catalog/product/cache/1/image/9df78eab33525d08d6e5fb8d27136e95/pimages/BrewdogNannyState.jpg
p306
asVWhite Gypsy Russian Impy 
p307
(lp308
F6.8
aF21.0
aI36
aI0
ag48
asVCorona Light
p309
(lp310
F4.6
aF7.0
aI3
aI0
aVhttp://rsvpmagazine.ie/wp-content/uploads/2013/06/Corona-Light.jpg
p311
asVFounders Centennial IPA Can
p312
(lp313
F5.4
aF36.0
aI3
aI0
ag219
asVPeroni Nastro Azzurro 
p314
(lp315
F3.5
aF13.0
aI3
aI0
aVhttp://res.cloudinary.com/ratebeer/image/upload/w_250,c_limit/beer_3029.jpg
p316
asVLindemans Cuvee Rene Kriek 
p317
(lp318
F5.0
aF3.0
aI11
aI6
aVhttp://res.cloudinary.com/ratebeer/image/upload/w_250,c_limit/beer_72448.jpg
p319
asVTRIPEL KARMELIET 
p320
(lp321
F7.0
aF7.0
aI3
aI0
aVhttp://res.cloudinary.com/ratebeer/image/upload/w_250,c_limit/beer_5368.jpg
p322
asVSiren Vanilla Weisse 
p323
(lp324
F2.8
aF7.0
aI3
aI3
aVhttp://i.imgur.com/UC3ZFA5.jpg
p325
asVDupont Avec Bons Voeux 
p326
(lp327
F8.7
aF24.0
aI4
aI0
aVhttp://res.cloudinary.com/ratebeer/image/upload/w_250,c_limit/beer_11047.jpg
p328
asVOud Beersel Oude Kriek 
p329
(lp330
F5.8
aF3.0
aI6
aI6
aVhttp://res.cloudinary.com/ratebeer/image/upload/w_250,c_limit/beer_10908.jpg
p331
asVMikkeller Raspberry Quadrupel
p332
(lp333
F12.9
aF7.0
aI10
aI0
ag167
asVAnchor Brekles Brown 
p334
(lp335
F4.3
aF24.0
aI18
aI0
aVhttp://res.cloudinary.com/ratebeer/image/upload/w_250,c_limit/beer_139388.jpg
p336
asVBrooklyn Silver Anniversary Lager
p337
(lp338
F8.8
aF25.0
aI3
aI0
aVhttp://res.cloudinary.com/ratebeer/image/upload/w_250,c_limit/beer_204873.jpg
p339
asVLagunitas Little Sumpin' 
p340
(lp341
F5.6
aF35.0
aI5
aI0
aVhttp://res.cloudinary.com/ratebeer/image/upload/w_250,c_limit/beer_103006.jpg
p342
asVTrouble Brewing Dark Arts Port
p343
(lp344
F3.8
aF24.0
aI35
aI0
aVhttp://res.cloudinary.com/ratebeer/image/upload/w_250,c_limit/beer_140325.jpg
p345
asVRochefort 10
p346
(lp347
F11.3
aF14.0
aI18
aI0
aVhttp://res.cloudinary.com/ratebeer/image/upload/w_250,c_limit/beer_2360.jpg
p348
asVWicklow Wolf Black Perle 
p349
(lp350
F4.7
aF7.0
aI31
aI0
aVhttp://www.fourcorners.ie/perch/resources/products/black-perle-porterpw-2.jpg
p351
asV3 Fonteinen Intense Red 
p352
(lp353
F5.8
aF7.0
aI11
aI0
aVhttp://i.imgur.com/G4xfSU4.jpg
p354
asVMikkeller Black Imperial 
p355
(lp356
F15.1
aF15.0
aI37
aI0
aVhttp://res.cloudinary.com/ratebeer/image/upload/w_250,c_limit/beer_83833.jpg
p357
asVLindemans Blossom Geuze 
p358
(lp359
F4.8
aF3.0
aI6
aI5
aVhttps://www.beergium.com/3454-thickbox_default/lindemans-blossom-gueuze-75cl.jpg
p360
asV3 Fonteinen Oude Kreik 
p361
(lp362
F6.3
aF2.0
aI9
aI0
aVhttp://res.cloudinary.com/ratebeer/image/upload/w_250,c_limit/beer_11175.jpg
p363
asVBirrifico L'Ultima Luna 
p364
(lp365
F14.4
aF32.0
aI32
aI0
aVhttp://lapobbia.com/wp-content/uploads/2013/10/lultima-luna.png
p366
asVSierra Nevada Torpedo
p367
(lp368
F7.2
aF68.0
aI4
aI0
aVhttp://res.cloudinary.com/ratebeer/image/upload/w_250,c_limit/beer_59261.jpg
p369
asVFourpure Session IPA
p370
(lp371
F1.3
aF49.0
aI5
aI0
aVhttps://www.beermerchants.com/media/catalog/product/f/o/four_pure_session_ipa.png
p372
asVOdells Runoff Red Ale 
p373
(lp374
F4.4
aF33.0
aI9
aI0
aVhttp://thefullpint.com/wp-content/uploads/2013/12/odell-runoff-red-ipa-bottle.jpg
p375
asVWEIHENSTEPHANER HEFE 
p376
(lp377
F2.2
aF7.0
aI3
aI0
aVhttp://res.cloudinary.com/ratebeer/image/upload/w_250,c_limit/beer_1156.jpg
p378
asVLa Trappe Quadrupel 
p379
(lp380
F10.0
aF7.0
aI19
aI0
aVhttp://res.cloudinary.com/ratebeer/image/upload/w_250,c_limit/beer_4565.jpg
p381
asVSUNBURNT RED ALE 
p382
(lp383
F3.7
aF21.0
aI9
aI0
aVhttp://res.cloudinary.com/ratebeer/image/upload/w_250,c_limit/beer_154054.jpg
p384
asVOdells Friek 
p385
(lp386
F8.4
aF55.0
aI8
aI5
aVhttp://res.cloudinary.com/ratebeer/image/upload/w_250,c_limit/beer_113162.jpg
p387
asVMaisel 
p388
(lp389
F6.9
aF7.0
aI3
aI0
aVhttp://res.cloudinary.com/ratebeer/image/upload/w_250,c_limit/beer_185853.jpg
p390
asVVeltins Pilsner 
p391
(lp392
F3.2
aF16.0
aI2
aI0
aVhttp://res.cloudinary.com/ratebeer/image/upload/w_250,c_limit/beer_4040.jpg
p393
asVSpencer Trappist Ale 
p394
(lp395
F5.2
aF7.0
aI4
aI0
aVhttp://res.cloudinary.com/ratebeer/image/upload/w_250,c_limit/beer_241569.jpg
p396
asVFounders reDANKulous 
p397
(lp398
F9.3
aF31.0
aI14
aI0
ag48
asVSka Brewing Modus Hoperandi
p399
(lp400
F6.2
aF55.0
aI4
aI0
aVhttp://res.cloudinary.com/ratebeer/image/upload/w_250,c_limit/beer_99487.jpg
p401
asVFourpure Pale Ale Can 
p402
(lp403
F5.0
aF100.0
aI4
aI0
aVhttp://www.pivovarorders.co.uk/user/products/large/fourpure%20american%20pale%20ale%20CAN.jpg
p404
asVWESTMALLE TRIPEL 
p405
(lp406
F8.6
aF12.0
aI3
aI0
aVhttp://res.cloudinary.com/ratebeer/image/upload/w_250,c_limit/beer_2204.jpg
p407
asVBrewDog Kingpin Lager
p408
(lp409
F2.9
aF29.0
aI4
aI0
aVhttp://www.beersofeurope.co.uk/media/catalog/product/cache/1/image/9df78eab33525d08d6e5fb8d27136e95/pimages/BrewdogKingpin.jpg
p410
asVAnchor Old Foghorn 
p411
(lp412
F9.5
aF21.0
aI22
aI0
aVhttp://res.cloudinary.com/ratebeer/image/upload/w_250,c_limit/beer_4728.jpg
p413
asVSchorsch Bock ICE 30 
p414
(lp415
F29.8
aF7.0
aI20
aI0
aVhttp://biershop.bierpost.com/Media/Thumbs/0003/0003527-schorschbock-ice-30-mit-30-033l-300.gif
p416
asVRascal's Yankee White IPA 
p417
(lp418
F4.8
aF55.0
aI2
aI0
aVhttp://www.martinsofflicence.ie/cms/images/260x510_p1455027156120_rascals_yankee_white_ipa.jpg
p419
asVDupont Biere De Miel Bio 
p420
(lp421
F6.7
aF12.0
aI3
aI0
aVhttp://res.cloudinary.com/ratebeer/image/upload/w_250,c_limit/beer_12383.jpg
p422
asVO'HARAS STOUT 
p423
(lp424
F4.1
aF21.0
aI30
aI0
aVhttp://res.cloudinary.com/ratebeer/image/upload/w_250,c_limit/beer_5830.jpg
p425
asVWhite Hag IPA 
p426
(lp427
F7.2
aF43.0
aI3
aI0
aVhttps://cdn.shopify.com/s/files/1/0286/4636/products/white_hag.jpg?v=1422444987
p428
asVSierra Nevada Hop Hunter 355
p429
(lp430
F6.2
aF70.0
aI4
aI0
aVhttp://res.cloudinary.com/ratebeer/image/upload/w_250,c_limit/beer_250957.jpg
p431
asVOBrother The Chancer APA 
p432
(lp433
F5.3
aF38.0
aI4
aI0
aVhttps://www.obrienswine.ie/media/catalog/product/1/5/15B180-O-Brother-Brewing-Chancer-APA-50cl-Bottle.png
p434
asVBrooklyn Lager 
p435
(lp436
F3.1
aF32.0
aI3
aI0
aVhttp://res.cloudinary.com/ratebeer/image/upload/w_250,c_limit/beer_528.jpg
p437
asVStone Barrel Brewing Boom IPA
p438
(lp439
F4.8
aF68.0
aI4
aI0
aVhttp://www.martinsofflicence.ie/cms/images/260x510_p1391086297922_stone-barrel-boom-session-ipa-2.jpg
p440
asVSierra Nevada Nooner Can
p441
(lp442
F2.0
aF40.0
aI3
aI0
aVhttp://res.cloudinary.com/ratebeer/image/upload/w_250,c_limit/beer_307541.jpg
p443
asVCOPPER COAST RED ALE 
p444
(lp445
F4.1
aF28.0
aI7
aI0
aVhttp://dungarvanbrewingcompany.com/wp-content/uploads/2012/10/copper_big1.png
p446
asVBudvar
p447
(lp448
F5.0
aF10.0
aI2
aI0
aVhttp://res.cloudinary.com/ratebeer/image/upload/w_250,c_limit/beer_1316.jpg
p449
asVPuck Pilsner 
p450
(lp451
F4.4
aF8.0
aI3
aI0
aVhttps://www.obrienswine.ie/media/catalog/product/1/5/15B083-Jack-Cody_s-Puck-Pilsner-50cl-Bottle.png
p452
asVOBrother The Fixer Red Ale
p453
(lp454
F5.4
aF36.0
aI7
aI0
aVhttp://www.martinsofflicence.ie/cms/images/260x510_p1472032953577_o-brother-brewing-fixer-amber-ale.jpg
p455
asVFourpure Skyliner Wheat Summer
p456
(lp457
F3.1
aF23.0
aI4
aI0
aVhttps://assets.londonist.com/uploads/2016/05/i730/four.jpg
p458
asVCOOPERS SPK. ALE 
p459
(lp460
F5.8
aF25.0
aI4
aI0
aVhttp://mrliquor.com.au/ma4/images/stories/virtuemart/product/COOPERS_SPK_ALE__51103402ae61d.jpg
p461
asVhenstephaner Original Helle
p462
(lp463
F1.5
aF9.0
aI4
aI0
aVhttp://cdn6.bigcommerce.com/s-fuwlhuh/products/357/images/619/Weihenstephaner_Original_Helles_new__37535.1437385886.490.588.png?c=2
p464
asVWEIHENSTEPHANER DUNKEL 
p465
(lp466
F3.9
aF7.0
aI14
aI0
aVhttp://www.beergonzo.co.uk/pictures/1b972403-ad81-4521-875c-f22b5f098063.jpg
p467
asVFounders Rubaeus Can 
p468
(lp469
F3.7
aF32.0
aI3
aI0
aVhttp://res.cloudinary.com/ratebeer/image/upload/w_250,c_limit/beer_46846.jpg
p470
asVChimay Doree Goud 
p471
(lp472
F3.3
aF12.0
aI3
aI0
aVhttp://res.cloudinary.com/ratebeer/image/upload/w_250,c_limit/beer_14228.jpg
p473
asVCHIMAY RED
p474
(lp475
F6.1
aF7.0
aI11
aI0
ag234
asVAnchor Christmas 2015  
p476
(lp477
F5.3
aF36.0
aI24
aI0
ag57
asVSt. Bernardus Abt 12 
p478
(lp479
F10.4
aF16.0
aI18
aI0
aVhttp://res.cloudinary.com/ratebeer/image/upload/w_250,c_limit/beer_2530.jpg
p480
asVWicklow Wolf American Amber
p481
(lp482
F4.5
aF29.0
aI7
aI0
aVhttp://www.fourcorners.ie/perch/resources/products/american-amberpw-2.jpg
p483
asVBrooklyn Local 1
p484
(lp485
F8.8
aF35.0
aI4
aI0
aVhttp://www.omega-level.net/wp-content/uploads/2010/02/Brooklyn-Local-1.jpg
p486
asVLagunitas Wilco Tango Foxtrot
p487
(lp488
F6.9
aF42.0
aI3
aI0
aVhttp://res.cloudinary.com/ratebeer/image/upload/w_250,c_limit/beer_117140.jpg
p489
asVFounders Porter 
p490
(lp491
F5.5
aF22.0
aI34
aI0
aVhttp://res.cloudinary.com/ratebeer/image/upload/w_250,c_limit/beer_3173.jpg
p492
asVBeavertown Neck Oil
p493
(lp494
F4.3
aF89.0
aI4
aI0
aVhttp://res.cloudinary.com/ratebeer/image/upload/w_250,c_limit/beer_230018.jpg
p495
asVFounders KBS 2016 
p496
(lp497
F13.2
aF21.0
aI31
aI0
aVhttp://res.cloudinary.com/ratebeer/image/upload/w_250,c_limit/beer_40544.jpg
p498
asVSka Brewing Rudie Session IPA
p499
(lp500
F1.5
aF41.0
aI5
aI0
aVhttp://res.cloudinary.com/ratebeer/image/upload/w_250,c_limit/beer_280927.jpg
p501
asVFounders Dirty Bastard 
p502
(lp503
F8.7
aF45.0
aI6
aI0
aVhttp://res.cloudinary.com/ratebeer/image/upload/w_250,c_limit/beer_11498.jpg
p504
asVOud Beersel Green Walnut 
p505
(lp506
F5.3
aF6.0
aI4
aI6
aVhttp://res.cloudinary.com/ratebeer/image/upload/w_250,c_limit/beer_348368.jpg
p507
asVBeavertown 8 Ball
p508
(lp509
F6.0
aF78.0
aI6
aI0
aVhttp://www.cavedirect.com/img/db/product-large/beavertown-8-ball-cave-direct.jpg
p510
asVBrooklyn K is for Kriek
p511
(lp512
F9.8
aF7.0
aI6
aI3
aVhttp://www.fourcorners.ie/perch/resources/other/k-is-for-kriek-hr.png
p513
asVBrooklyn Lager
p514
(lp515
F5.2
aF33.0
aI4
aI0
aVhttp://res.cloudinary.com/ratebeer/image/upload/w_120,c_limit/beer_528.jpg
p516
asVBarefoot Bohemian Lager
p517
(lp518
F3.5
aF15.0
aI2
aI0
aVhttp://www.beersofeurope.co.uk/media/catalog/product/cache/1/image/9df78eab33525d08d6e5fb8d27136e95/pimages/EightdegreesBarefootBohemian.jpg
p519
asVLindemans Faro 
p520
(lp521
F3.9
aF7.0
aI14
aI4
aVhttp://res.cloudinary.com/ratebeer/image/upload/w_250,c_limit/beer_6376.jpg
p522
asVO'Haras Notorious Red IPA
p523
(lp524
F4.5
aF35.0
aI6
aI0
aVhttps://www.obrienswine.ie/media/catalog/product/1/6/16B030-O_Haras-Notorious-Red-IPA-50cl-Bottle.png
p525
asVBlacks Kinsale 'KPA' Can 
p526
(lp527
F4.0
aF47.0
aI3
aI0
aVhttp://res.cloudinary.com/ratebeer/image/upload/w_250,c_limit/beer_217458.jpg
p528
asVLagunitas Censored 
p529
(lp530
F4.9
aF5.0
aI5
aI0
aVhttp://res.cloudinary.com/ratebeer/image/upload/w_250,c_limit/beer_8829.jpg
p531
asVO'Hara's Imperial Stout 
p532
(lp533
F9.8
aF15.0
aI34
aI0
aVhttp://www.martinsofflicence.ie/cms/images/260x510_p1459254599946_oharas_imperial_stout_20th_anniversary.jpg
p534
asVBeavertown Smog Rocket Can 330
p535
(lp536
F3.8
aF68.0
aI23
aI0
aVhttps://www.beermerchants.com/media/catalog/product/cache/1/image/x400/17f82f742ffe127f42dca9de82fb58b1/b/e/beavertown_smog_rocket_2.png
p537
asVBrewDog Restorative Can 
p538
(lp539
F8.5
aF100.0
aI5
aI0
aVhttp://cdn2.bigcommerce.com/server2400/0294a/products/5215/images/5970/Brewdog_Restorative_Beverage__94811.1473857983.1280.1280.jpg?c=2
p540
asVLagunitas Brown Shugga 
p541
(lp542
F9.6
aF43.0
aI16
aI0
aVhttp://res.cloudinary.com/ratebeer/image/upload/w_250,c_limit/beer_8732.jpg
p543
asVPORTERHOUSE RED 
p544
(lp545
F3.3
aF20.0
aI7
aI0
aVhttp://res.cloudinary.com/ratebeer/image/upload/w_250,c_limit/beer_11376.jpg
p546
asVWhite Gypsy Doppelbock 
p547
(lp548
F7.4
aF7.0
aI16
aI0
aVhttp://www.martinsofflicence.ie/cms/images/260x510_p1371558542122_23463666.jpg
p549
asVOscar Blues Dales Pale Ale
p550
(lp551
F4.7
aF37.0
aI3
aI0
aVhttp://res.cloudinary.com/ratebeer/image/upload/w_250,c_limit/beer_11576.jpg
p552
asVFounders Mosaic Promise 
p553
(lp554
F4.0
aF52.034
aI4
aI0
aVhttp://res.cloudinary.com/ratebeer/image/upload/w_250,c_limit/beer_226680.jpg
p555
asVFounders Sumatra Mountain Brow
p556
(lp557
F8.7
aF7.0
aI8
aI0
aVhttp://res.cloudinary.com/ratebeer/image/upload/w_250,c_limit/beer_135773.jpg
p558
asVSpaten Lager
p559
(lp560
F5.2
aF14.0
aI3
aI0
aVhttp://lakebeverage.com/wp-content/uploads/2015/03/Spaten-Premium-Lager.png
p561
asVCOOPERS PALE ALE 
p562
(lp563
F3.2
aF34.0
aI5
aI0
aVhttp://res.cloudinary.com/ratebeer/image/upload/w_250,c_limit/beer_4060.jpg
p564
asVBrewDog Bourbon Baby 
p565
(lp566
F5.0
aF7.0
aI11
aI0
aVhttp://res.cloudinary.com/ratebeer/image/upload/w_250,c_limit/beer_252097.jpg
p567
asVBrooklyn Intensified Coffee Po
p568
(lp569
F11.8
aF32.0
aI24
aI0
aVhttps://decrescente.net/images/suppliers/brooklyn-brewery/brooklyn-intensified-coffee-porter/intensified-coffee-porter-bottle-lg.png
p570
asVLagunitas Aunt Sally 
p571
(lp572
F3.4
aF40.0
aI3
aI4
aVhttps://lagunitas.com/u/img/beer-images/aunt-sally/Aunt-Sally-Lagunitas-12oz-Bottle.png
p573
asVBrewDog Ship Wreck 
p574
(lp575
F14.5
aF24.0
aI20
aI0
aVhttp://www.beersofeurope.co.uk/media/catalog/product/cache/1/image/9df78eab33525d08d6e5fb8d27136e95/pimages/BrewdogShipWreck.jpg
p576
asVOdells St. Lupulin
p577
(lp578
F3.9
aF48.0
aI3
aI0
aVhttp://www.martinsofflicence.ie/cms/images/260x510_p1472133158777_st_lupulin_extra_pale_ale_can.jpg
p579
asVBrooklyn East India Pale 
p580
(lp581
F5.2
aF35.0
aI4
aI0
aVhttp://res.cloudinary.com/ratebeer/image/upload/w_250,c_limit/beer_530.jpg
p582
asVBREWDOG TOKYO 
p583
(lp584
F17.2
aF56.0
aI28
aI0
aVhttp://res.cloudinary.com/ratebeer/image/upload/w_250,c_limit/beer_107203.jpg
p585
asVBuried At Sea Chocolate Milk Stout
p586
(lp587
F4.5
aF12.0
aI21
aI0
aVhttps://lh3.googleusercontent.com/ZmuTr5STboTbtjg-MktoJZl3YiXitvEQ1LrPAEtasW4xgevCdmzpFrDvD6-jkYF8-aQK-bbf9V_wtpb-0K95_UY=s350
p588
asVStone Arrogant Bastard
p589
(lp590
F7.2
aF100.0
aI4
aI0
aVhttp://stonesalesmaterials.com/wp-content/uploads/2014/09/2014_BourbonABA_bottle_Web.png
p591
asVSierra Nevada Pale Ale Can 355
p592
(lp593
F2.1
aF42.0
aI4
aI0
ag36
asVSierra Nevada Porter 
p594
(lp595
F4.4
aF34.0
aI34
aI0
aVhttp://res.cloudinary.com/ratebeer/image/upload/w_250,c_limit/beer_366.jpg
p596
asVBlacks Kinsale Black IPA 
p597
(lp598
F4.9
aF45.0
aI28
aI0
aVhttp://res.cloudinary.com/ratebeer/image/upload/w_250,c_limit/beer_236468.jpg
p599
asVBrooklyn Cuvee Noir 
p600
(lp601
F10.9
aF26.0
aI26
aI0
aVhttp://brooklynbrewery.com/system/beers/44_shelf_CuveeNoire-750ml-LR_original.png?1442434954
p602
asVBLACK ROCK STOUT 
p603
(lp604
F3.6
aF24.0
aI33
aI0
aVhttp://res.cloudinary.com/ratebeer/image/upload/w_250,c_limit/beer_128477.jpg
p605
asVBrooklyn Wild Streak 
p606
(lp607
F9.4
aF36.0
aI8
aI3
aVhttp://res.cloudinary.com/ratebeer/image/upload/w_250,c_limit/beer_250350.jpg
p608
asVOdells The Meddler 
p609
(lp610
F7.8
aF2.0
aI9
aI6
aVhttp://res.cloudinary.com/ratebeer/image/upload/w_250,c_limit/beer_185267.jpg
p611
asVBrooklyn Black Chocolate 
p612
(lp613
F9.1
aF15.0
aI24
aI0
aVhttp://res.cloudinary.com/ratebeer/image/upload/w_250,c_limit/beer_531.jpg
p614
asVSiren Pompelmocello 
p615
(lp616
F3.4
aF22.0
aI4
aI3
aVhttps://www.beermerchants.com/media/catalog/product/s/i/siren_pompelmocello.png
p617
asVBRAINBLASTA 
p618
(lp619
F7.0
aF10.0
aI11
aI0
aVhttp://cdn.shopify.com/s/files/1/0286/4636/products/PorterhouseBrainblasta_grande.jpg?v=1403865154
p620
asVAnchor Saison Spring Ale 
p621
(lp622
F6.0
aF29.0
aI5
aI0
aVhttp://www.beersofeurope.co.uk/media/catalog/product/cache/1/image/9df78eab33525d08d6e5fb8d27136e95/pimages/AnchorSaisonSpringAle.jpg
p623
asVSierra Nevada Bigfoot 2015 350
p624
(lp625
F10.0
aF20.0
aI18
aI0
aVhttp://res.cloudinary.com/ratebeer/image/upload/w_250,c_limit/beer_371.jpg
p626
asVAecht Schlenkerla Weizen 
p627
(lp628
F3.6
aF7.0
aI5
aI0
aVhttp://res.cloudinary.com/ratebeer/image/upload/w_250,c_limit/beer_8565.jpg
p629
asVWhiplash Rollover Session IPA
p630
(lp631
F3.6
aF47.0
aI3
aI0
aVhttp://res.cloudinary.com/ratebeer/image/upload/w_250,c_limit/beer_412929.jpg
p632
asVBrooklyn Improved Old Fashioned
p633
(lp634
F13.3
aF14.0
aI17
aI0
aVhttp://i.imgur.com/m5H8YVd.jpg
p635
asVFRANZISKANER HEFE 
p636
(lp637
F2.6
aF7.0
aI5
aI0
aVhttp://res.cloudinary.com/ratebeer/image/upload/w_250,c_limit/beer_1088.jpg
p638
asVSchneider Tap X Maries Rendezv
p639
(lp640
F8.4
aF8.0
aI3
aI0
aVhttp://res.cloudinary.com/ratebeer/image/upload/w_250,c_limit/beer_398355.jpg
p641
asVYeastie Boys Digital IPA 
p642
(lp643
F5.5
aF55.0
aI4
aI0
aVhttp://www.nectar.net/productimages/YEA003%20Yeastie%20Boys%20Digital%20IPA.jpg
p644
asVLeffe Blonde 
p645
(lp646
F5.6
aF16.0
aI3
aI0
aVhttp://res.cloudinary.com/ratebeer/image/upload/w_250,c_limit/beer_2514.jpg
p647
asVFounders Rubaeus 
p648
(lp649
F3.7
aF26.0
aI6
aI0
ag470
asVOscar Blues Mama's Little Yell
p650
(lp651
F2.7
aF38.0
aI3
aI0
aVhttp://1.bp.blogspot.com/-IVe8S-HOOjg/VS24Xe9LbQI/AAAAAAAAiPo/XYp4d-aOvTo/s1600/mama's%2Blittle%2Byella%2Bpils%2Boskar%2Bblues.png
p652
asVLagunitas Stoopid Wit 
p653
(lp654
F4.7
aF42.0
aI2
aI0
aVhttp://res.cloudinary.com/ratebeer/image/upload/w_250,c_limit/beer_435254.jpg
p655
asVBeoir Chorca Cul Dorcha
p656
(lp657
F4.8
aF15.0
aI40
aI0
aVhttp://www.martinsofflicence.ie/cms/images/260x510_p1389718576762_west-kerry-cul-dorcha.jpg
p658
asVBirrifico Verdi Black Jack
p659
(lp660
F9.8
aF15.0
aI16
aI0
aVhttp://res.cloudinary.com/ratebeer/image/upload/w_120,c_limit/beer_124259.jpg
p661
asVBrewDog Dead Pony Club
p662
(lp663
F3.8
aF45.0
aI3
aI0
aVhttp://res.cloudinary.com/ratebeer/image/upload/w_250,c_limit/beer_172207.jpg
p664
asVLa Chouffe Houblon Triple IPA
p665
(lp666
F7.6
aF37.0
aI5
aI0
aVhttp://res.cloudinary.com/ratebeer/image/upload/w_250,c_limit/beer_56757.jpg
p667
asVO'Haras Hop Adventure 
p668
(lp669
F5.0
aF68.0
aI4
aI0
aVhttp://www.martinsofflicence.ie/cms/images/260x510_p1437398797618_o%E2%80%99hara%E2%80%99s-hop-adventure-sorachi-ace.jpg
p670
asVFounders Breakfast Stout 
p671
(lp672
F8.0
aF7.0
aI28
aI0
aVhttp://res.cloudinary.com/ratebeer/image/upload/w_250,c_limit/beer_14956.jpg
p673
asVBrewDog Jet Black Heart 
p674
(lp675
F4.1
aF7.0
aI35
aI0
aVhttp://res.cloudinary.com/ratebeer/image/upload/w_250,c_limit/beer_395517.jpg
p676
asVOBrother The Sinner IPA 
p677
(lp678
F6.1
aF66.0
aI5
aI0
aVhttps://cdn.shopify.com/s/files/1/0286/4636/products/15B178-O-Brother-Brewing-Sinner-IPA-50cl-Bottle.png?v=1480078363
p679
asVWESTMALLE DUBBEL 
p680
(lp681
F6.4
aF15.0
aI16
aI0
aVhttp://res.cloudinary.com/ratebeer/image/upload/w_250,c_limit/beer_2205.jpg
p682
asVDeus 
p683
(lp684
F11.5
aF30.0
aI6
aI0
aVhttp://res.cloudinary.com/ratebeer/image/upload/w_250,c_limit/beer_18912.jpg
p685
asVStormy Port Irish Porter 
p686
(lp687
F4.4
aF7.0
aI32
aI0
aVhttp://res.cloudinary.com/ratebeer/image/upload/w_250,c_limit/beer_164660.jpg
p688
asVMetalman Equinox 
p689
(lp690
F3.7
aF38.0
aI8
aI0
aVhttp://www.martinsofflicence.ie/cms/images/260x510_p1440510769881_metal-man-2.jpg
p691
asVTrouble Brewing Deception
p692
(lp693
F2.2
aF35.0
aI6
aI0
aVhttp://res.cloudinary.com/ratebeer/image/upload/w_250,c_limit/beer_247307.jpg
p694
asVMetalman Pale Ale
p695
(lp696
F2.8
aF48.0
aI4
aI0
aVhttp://www.fourcorners.ie/perch/resources/other/metalman-pale-ale.png
p697
asVRanke Hop Harvest 2015
p698
(lp699
F5.8
aF35.0
aI4
aI0
aVhttp://res.cloudinary.com/ratebeer/image/upload/w_250,c_limit/beer_189698.jpg
p700
asVBrewDog Sink The Bismark 
p701
(lp702
F43.1
aF29.0
aI7
aI0
aVhttp://beerstore.com.au/wp-content/uploads/2015/10/brew-dog-sink-bismark-beer-online-1369618023.jpg
p703
asVAnchor Zymaster No. 6 
p704
(lp705
F5.8
aF20.0
aI5
aI0
aVhttps://s-media-cache-ak0.pinimg.com/236x/72/4c/6a/724c6a75be9eff71bca6ba68cb854eee.jpg
p706
asVOscar Blues Pinner Passion Fruit
p707
(lp708
F2.7
aF46.0
aI4
aI0
aVhttp://www.oakbarrel.com.au/images/products/lg_3447.jpg
p709
asVSam Adams Rebel IPA 
p710
(lp711
F5.2
aF40.0
aI3
aI0
aVhttp://res.cloudinary.com/ratebeer/image/upload/w_250,c_limit/beer_222791.jpg
p712
asVPORTERHOUSE PLAIN 
p713
(lp714
F3.1
aF31.0
aI34
aI0
aVhttp://www.theporterhouse.ie/images/beers/bottle-plain.png
p715
asVLagunitas Lucky 13 
p716
(lp717
F8.6
aF44.0
aI4
aI0
aVhttps://lagunitas.com/u/img/beer-images/lucky13/Lucky-13-Lagunitas-12-oz-Bottle.png
p718
asVStone IPA Can 
p719
(lp720
F4.9
aF71.0
aI3
aI0
aVhttp://res.cloudinary.com/ratebeer/image/upload/w_250,c_limit/beer_422.jpg
p721
asVRodenbach Grand Cru 
p722
(lp723
F5.0
aF7.0
aI19
aI8
aVhttp://res.cloudinary.com/ratebeer/image/upload/w_250,c_limit/beer_1194.jpg
p724
asVOdells Drumroll APA
p725
(lp726
F3.5
aF49.0
aI4
aI0
aVhttp://i.imgur.com/hFPHPnH.jpg
p727
asVThornbridge Eldon 
p728
(lp729
F7.1
aF7.0
aI32
aI0
aVhttp://www.pivovarorders.co.uk/user/products/large/ELDON%20BOTTLE.png
p730
asVWhite Hag Wit 
p731
(lp732
F3.9
aF32.0
aI7
aI0
aVhttp://www.beersofeurope.co.uk/media/catalog/product/cache/1/image/9df78eab33525d08d6e5fb8d27136e95/pimages/TheWhiteHagRedDoe.jpg
p733
asVAnchor Liberty Ale 
p734
(lp735
F4.5
aF43.0
aI4
aI0
aVhttp://res.cloudinary.com/ratebeer/image/upload/w_250,c_limit/beer_47.jpg
p736
asVTrouble Brewing Sabotage IPA
p737
(lp738
F5.1
aF36.0
aI5
aI0
aVhttp://www.martinsofflicence.ie/cms/images/708x708_p1374748070442_trouble_brewing_sabotage_india_pale_ale.jpg
p739
asVOdell's Lugene Choco Milk Stou
p740
(lp741
F7.0
aF14.0
aI28
aI0
aVhttp://res.cloudinary.com/ratebeer/image/upload/w_250,c_limit/beer_194215.jpg
p742
asVBrooklyn Sorachi  Ace
p743
(lp744
F5.6
aF41.0
aI5
aI0
aVhttp://www.beersofeurope.co.uk/media/catalog/product/cache/1/image/9df78eab33525d08d6e5fb8d27136e95/pimages/BrooklynSorachiAce.jpg
p745
asVLagunitas Pale Ale 
p746
(lp747
F3.5
aF48.0
aI5
aI0
aVhttp://res.cloudinary.com/ratebeer/image/upload/w_250,c_limit/beer_86876.jpg
p748
asVSierra Nevada Torpedo 
p749
(lp750
F6.7
aF62.0
aI4
aI0
ag369
asVAnchor Steam Beer 
p751
(lp752
F1.9
aF29.0
aI4
aI0
aVhttp://res.cloudinary.com/ratebeer/image/upload/w_250,c_limit/beer_46.jpg
p753
asVThornbridge Jaipur 
p754
(lp755
F3.2
aF49.0
aI4
aI0
aVhttp://res.cloudinary.com/ratebeer/image/upload/w_250,c_limit/beer_48795.jpg
p756
asVRascal's Big Hop Red Can 
p757
(lp758
F5.0
aF31.0
aI7
aI0
aVhttp://www.martinsofflicence.ie/cms/images/260x510_p1455027698855_rascals_big_hop_red.jpg
p759
asVO'Hara's Leann Follain 
p760
(lp761
F8.7
aF7.0
aI23
aI0
aVhttp://www.beersofeurope.co.uk/media/catalog/product/cache/1/image/9df78eab33525d08d6e5fb8d27136e95/pimages/OharasLeannFollain.jpg
p762
asVOud Beersel Oude Geuze 
p763
(lp764
F5.0
aF31.0
aI3
aI6
aVhttp://res.cloudinary.com/ratebeer/image/upload/w_250,c_limit/beer_10907.jpg
p765
asVBrewDog Vagabond P A 
p766
(lp767
F1.7
aF38.0
aI4
aI0
aVhttp://res.cloudinary.com/ratebeer/image/upload/w_250,c_limit/beer_304469.jpg
p768
asVLagunitas The Down Low 
p769
(lp770
F3.3
aF52.0
aI5
aI0
aVhttps://lagunitas.com/u/img/beer-images/downlow/DownLow_Web.png
p771
asVBeavertown Gamma Ray Can
p772
(lp773
F2.4
aF51.0
aI5
aI0
aVhttp://res.cloudinary.com/ratebeer/image/upload/w_250,c_limit/beer_189363.jpg
p774
asVOscar Blues G'Knight 
p775
(lp776
F6.6
aF7.0
aI9
aI0
aVhttp://extras.mnginteractive.com/live/media/site21/2011/0114/20110114__15dcaoskw~2.jpg
p777
asVO'HARAS LEANN FOLLAIN 
p778
(lp779
F5.2
aF7.0
aI24
aI0
aVhttp://res.cloudinary.com/ratebeer/image/upload/w_250,c_limit/beer_100788.jpg
p780
asVWicklow Wolf Kentucky
p781
(lp782
F4.8
aF7.0
aI4
aI1
aVhttps://www.obrienswine.ie/media/catalog/product/1/4/14B123-Wicklow-Wolf-IPA-50cl-Btl.png
p783
asVStone Brewing Cali
p784
(lp785
F6.1
aF70.0
aI4
aI0
aVhttp://res.cloudinary.com/ratebeer/image/upload/w_250,c_limit/beer_87480.jpg
p786
asV3 Fonteinen Oude Geuze 
p787
(lp788
F6.0
aF7.0
aI3
aI6
aVhttp://res.cloudinary.com/ratebeer/image/upload/w_250,c_limit/beer_11168.jpg
p789
asVSka Brewing Modus Mandarina 35
p790
(lp791
F6.2
aF54.0
aI3
aI0
aVhttp://res.cloudinary.com/ratebeer/image/upload/w_250,c_limit/beer_260630.jpg
p792
asVO'HARAS IRISH PALE ALE 
p793
(lp794
F3.9
aF41.0
aI3
aI0
aVhttp://res.cloudinary.com/ratebeer/image/upload/w_250,c_limit/beer_126380.jpg
p795
asVAnderson V Brother David 
p796
(lp797
F10.4
aF15.0
aI4
aI0
aVhttp://res.cloudinary.com/ratebeer/image/upload/w_250,c_limit/beer_34081.jpg
p798
asa.