(dp0
V3 Fonteinen Oude Geuze
p1
(lp2
F6.0
aF7.0
aI1
aI0
aVhttp://res.cloudinary.com/ratebeer/image/upload/w_250,c_limit/beer_311168.jpg
p3
asVKNOCKMEALDOWN PORTER 
p4
(lp5
F4.8
aF7.0
aI32
aI0
aVhttp://res.cloudinary.com/ratebeer/image/upload/w_250,c_limit/beer_160562.jpg
p6
asVLa Trappe Tripel 
p7
(lp8
F8.0
aF7.0
aI37
aI0
aVhttp://res.cloudinary.com/ratebeer/image/upload/w_250,c_limit/beer_4564.jpg
p9
asVBoon Oude Geuze Black Label
p10
(lp11
F6.0
aF7.0
aI37
aI6
aVhttp://res.cloudinary.com/ratebeer/image/upload/w_250,c_limit/beer_367485.jpg
p12
asVO'HARAS IRISH RED 
p13
(lp14
F2.9
aF1.0
aI37
aI0
aVhttp://res.cloudinary.com/ratebeer/image/upload/w_250,c_limit/beer_44140.jpg
p15
asVLittle Creatures Pale Ale 330M
p16
(lp17
F3.1
aF40.0
aI1
aI0
aVhttp://res.cloudinary.com/ratebeer/image/upload/w_250,c_limit/beer_7658.jpg
p18
asVAnchor Christmas 2015 
p19
(lp20
F5.3
aF7.0
aI1
aI0
aVhttps://2fdltvvn8wp2rn64ywgk8o17-wpengine.netdna-ssl.com/wp-content/uploads/2015/01/anchor-christmas-ale-2014.png
p21
asVSiren Maiden 
p22
(lp23
F10.8
aF7.0
aI1
aI0
aVhttp://media.alesbymail.co.uk/catalog/product/cache/1/image/9df78eab33525d08d6e5fb8d27136e95/s/i/siren---maiden-2014.jpg
p24
asVBrewDog Elvis Juice 
p25
(lp26
F6.3
aF7.0
aI1
aI0
aVhttps://img.saveur-biere.com/img/p/9412-22248-v4_product_img.jpg
p27
asVOud Beersel Framboise 
p28
(lp29
F3.6
aF7.0
aI1
aI3
aVhttp://res.cloudinary.com/ratebeer/image/upload/w_250,c_limit/beer_49975.jpg
p30
asVPorterhouse Celebration Stout
p31
(lp32
F6.8
aF7.0
aI1
aI0
aVhttp://res.cloudinary.com/ratebeer/image/upload/w_250,c_limit/beer_145625.jpg
p33
asVDupont Biere De Miel Bio 
p34
(lp35
F6.7
aF0.0
aI1
aI0
aVhttp://res.cloudinary.com/ratebeer/image/upload/w_250,c_limit/beer_12383.jpg
p36
asVOdells Fernet Aged Porter
p37
(lp38
F9.4
aF7.0
aI1
aI0
aVhttp://www.beersofeurope.co.uk/media/catalog/product/cache/1/image/9df78eab33525d08d6e5fb8d27136e95/pimages/OdellFernetAgedPorter.jpg
p39
asVBrooklyn Blast Ale 
p40
(lp41
F7.7
aF38.0
aI1
aI0
aVhttp://res.cloudinary.com/ratebeer/image/upload/w_250,c_limit/beer_51334.jpg
p42
asVSamuel Adams Boston Lager
p43
(lp44
F2.6
aF31.0
aI1
aI0
aVhttp://res.cloudinary.com/ratebeer/image/upload/w_250,c_limit/beer_158.jpg
p45
asVBzat Kriekenlambiek Oud Beerse
p46
(lp47
F8.0
aF100.0
aI1
aI0
aVhttp://res.cloudinary.com/ratebeer/image/upload/w_250,c_limit/beer_184275.jpg
p48
asVStone Brewing Ruination IPA Ca
p49
(lp50
F7.1
aF47.0
aI1
aI0
aVhttp://res.cloudinary.com/ratebeer/image/upload/w_250,c_limit/beer_14709.jpg
p51
asVMOOSEHEAD 
p52
(lp53
F5.0
aF100.0
aI1
aI0
aVhttp://www.moosehead.de/files/photos/moosehead-de-goodyfood-klaus-kunze-moosehead-lager-large.png
p54
asVSierra Nevada Hoptimum 
p55
(lp56
F10.2
aF39.0
aI1
aI0
aVhttp://res.cloudinary.com/ratebeer/image/upload/w_250,c_limit/beer_117825.jpg
p57
asVWicklow Wolf IPA 
p58
(lp59
F6.4
aF42.0
aI1
aI0
aVhttp://res.cloudinary.com/ratebeer/image/upload/w_250,c_limit/beer_303283.jpg
p60
asVCURIM 
p61
(lp62
F2.7
aF30.0
aI1
aI0
aVhttp://res.cloudinary.com/ratebeer/image/upload/w_250,c_limit/beer_4941.jpg
p63
asVCamden Town IHL Barrel Aged 66
p64
(lp65
F7.3
aF28.0
aI1
aI0
aVhttp://res.cloudinary.com/ratebeer/image/upload/w_250,c_limit/beer_316205.jpg
p66
asVRascal's Wunderbar IPA
p67
(lp68
F5.7
aF32.0
aI1
aI0
aVhttp://www.martinsofflicence.ie/cms/images/260x510_p1469807501849_wunderbar_render.jpg
p69
asV3 Fonteinen Oude Geuze 
p70
(lp71
F6.0
aF7.0
aI1
aI0
aVhttp://res.cloudinary.com/ratebeer/image/upload/w_250,c_limit/beer_11168.jpg
p72
asVSt. Bernardus Tripel 
p73
(lp74
F6.7
aF4.0
aI1
aI0
aVhttp://res.cloudinary.com/ratebeer/image/upload/w_250,c_limit/beer_2528.jpg
p75
asVChapeau Cuvee Oude Geuze 
p76
(lp77
F3.5
aF6.0
aI1
aI7
aVhttp://res.cloudinary.com/ratebeer/image/upload/w_250,c_limit/beer_6241.jpg
p78
asVO'Hara's Double IPA 
p79
(lp80
F5.6
aF31.0
aI1
aI0
aVhttp://res.cloudinary.com/ratebeer/image/upload/w_250,c_limit/beer_204890.jpg
p81
asVLa Chouffe Houblon Triple IPA
p82
(lp83
F7.6
aF38.0
aI1
aI0
aVhttp://res.cloudinary.com/ratebeer/image/upload/w_250,c_limit/beer_56757.jpg
p84
asVLagunitas Equinox 
p85
(lp86
F7.5
aF35.0
aI1
aI0
aVhttps://s-media-cache-ak0.pinimg.com/originals/14/fb/bd/14fbbd3dca6239a9b85ad1b6aaef6977.png
p87
asVLa Trappe Blonde 
p88
(lp89
F5.8
aF7.0
aI1
aI0
aVhttp://res.cloudinary.com/ratebeer/image/upload/w_250,c_limit/beer_10380.jpg
p90
asVBoon Framboise 
p91
(lp92
F5.0
aF7.0
aI1
aI3
aVhttp://res.cloudinary.com/ratebeer/image/upload/w_250,c_limit/beer_4430.jpg
p93
asVBrewdog Hardcore IPA
p94
(lp95
F9.0
aF7.0
aI1
aI0
aVhttp://res.cloudinary.com/ratebeer/image/upload/w_250,c_limit/beer_118721.jpg
p96
asVBzat Lambiek Oud Beersel 
p97
(lp98
F6.8
aF29.0
aI1
aI7
aVhttp://res.cloudinary.com/ratebeer/image/upload/w_250,c_limit/beer_23561.jpg
p99
asVSierra Nevada Barrel Aged Bigf
p100
(lp101
F13.1
aF7.0
aI1
aI0
aVhttp://res.cloudinary.com/ratebeer/image/upload/w_250,c_limit/beer_65123.jpg
p102
asVDungarvan Mine Head 
p103
(lp104
F5.5
aF100.0
aI1
aI0
aVhttp://dungarvanbrewingcompany.com/wp-content/uploads/2012/10/mine_big.png
p105
asVLeft Hand Wake Up Dead 
p106
(lp107
F9.5
aF7.0
aI1
aI0
aVhttp://lefthandbrewing.com/wp/wp-content/uploads/2013/06/wakeupdead1.png
p108
asVSiren White Tips 
p109
(lp110
F2.3
aF49.0
aI1
aI0
aVhttps://www.eebria.com/media/products/524/20150430145251082/450x450.jpg
p111
asVFourpure Oatmeal Stout
p112
(lp113
F4.9
aF7.0
aI1
aI0
aVhttps://www.beermerchants.com/media/catalog/product/f/o/four_pure_oatmeal_stout.png
p114
asVBrewDog JackHammer Can 
p115
(lp116
F6.3
aF57.0
aI1
aI0
aVhttp://res.cloudinary.com/ratebeer/image/upload/w_250,c_limit/beer_178585.jpg
p117
asVFounders Devil Dancer 
p118
(lp119
F11.6
aF32.0
aI1
aI0
aVhttp://res.cloudinary.com/ratebeer/image/upload/w_250,c_limit/beer_34518.jpg
p120
asVLagunitas Aunt Sally 
p121
(lp122
F3.4
aF40.0
aI1
aI4
aVhttps://lagunitas.com/u/img/beer-images/aunt-sally/Aunt-Sally-Lagunitas-12oz-Bottle.png
p123
asVThird Circle Samhradh 
p124
(lp125
F4.4
aF5.0
aI1
aI0
aVhttp://media.istockphoto.com/photos/beer-bottle-picture-id175533358?k=6&m=175533358&s=170667a&w=0&h=de2hI2j7Ie8LiNCvkRlS-wwxhChsggEDoX9SDagZnAY=
p126
asVBay Ale Irish Red Ale 
p127
(lp128
F4.3
aF29.0
aI1
aI0
aVhttp://noreast.ie/Content/Images/Beers/galwaybay_bay_ale.jpg
p129
asVOdells The Meddler 
p130
(lp131
F7.8
aF7.0
aI1
aI6
aVhttp://res.cloudinary.com/ratebeer/image/upload/w_250,c_limit/beer_185267.jpg
p132
asVCHIMAY BLUE GRANDE RES
p133
(lp134
F8.8
aF7.0
aI1
aI0
aVhttp://res.cloudinary.com/ratebeer/image/upload/w_250,c_limit/beer_53.jpg
p135
asVMikkeller Spontan Cherry 
p136
(lp137
F6.6
aF7.0
aI1
aI4
aVhttp://res.cloudinary.com/ratebeer/image/upload/w_250,c_limit/beer_205607.jpg
p138
asVChimay White
p139
(lp140
F8.0
aF100.0
aI1
aI0
aVhttp://res.cloudinary.com/ratebeer/image/upload/w_250,c_limit/beer_52.jpg
p141
asVKinnegar Brewing Yannaroddy
p142
(lp143
F4.4
aF7.0
aI1
aI0
aVhttp://www.martinsofflicence.ie/cms/images/737x737_p1395749582350_kinnegar_yannaroddy_porter..jpg
p144
asVOud Beersel Schaarbeekse Oude
p145
(lp146
F6.8
aF1.0
aI1
aI7
aVhttp://res.cloudinary.com/ratebeer/image/upload/w_250,c_limit/beer_409938.jpg
p147
asVAnchor Porter 
p148
(lp149
F4.6
aF7.0
aI1
aI0
aVhttp://res.cloudinary.com/ratebeer/image/upload/w_250,c_limit/beer_48.jpg
p150
asVLeft Hand Smokejumper 
p151
(lp152
F7.4
aF7.0
aI1
aI0
aVhttp://res.cloudinary.com/ratebeer/image/upload/w_250,c_limit/beer_65635.jpg
p153
asVBrewDog Cocoa Psycho
p154
(lp155
F10.0
aF7.0
aI1
aI0
aVhttp://www.worldbeerawards.com/media/bottles/23476-120x400.jpg
p156
asVBlackJack Drogheda Cream 
p157
(lp158
F4.6
aF7.0
aI1
aI0
aVhttp://www.martinsofflicence.ie/cms/images/260x510_p1425993781860_jack-codys-black-jack,-drogheda-cream-stout-3.jpg
p159
asVBrewDog 5AM Saint 
p160
(lp161
F4.8
aF7.0
aI1
aI0
aVhttp://beerstore.com.au/wp-content/uploads/2015/10/brewdog-5am-saint-beer-online-1378101233.jpg
p162
asVAsahi 
p163
(lp164
F5.0
aF100.0
aI1
aI0
aVhttp://www.odonovansofflicence.com/wp-content/uploads/2016/03/BEBTASAH5001.jpeg
p165
asVLindemans Cuvee Rene Oude Gueze
p166
(lp167
F5.8
aF7.0
aI1
aI0
aVhttp://www.merchantduvin.com/images/i-lindemans-cuvee-rene-gueuze-lambic.png
p168
asVThornbridge HALL Double Scotch
p169
(lp170
F7.7
aF7.0
aI1
aI0
aVhttp://www.beergonzo.co.uk/pictures/3a90fb6b-b4a2-484c-98d8-bb7b1a0d9c9a.jpg
p171
asVBREWDOG PUNK IPA 
p172
(lp173
F5.4
aF7.0
aI1
aI0
aVhttps://www.shoppersvineyard.com/images/labels/brewdog-punk-ipa.gif
p174
asVBrooklyn Sorachi  Ace
p175
(lp176
F5.6
aF41.0
aI1
aI0
aVhttp://www.beersofeurope.co.uk/media/catalog/product/cache/1/image/9df78eab33525d08d6e5fb8d27136e95/pimages/BrooklynSorachiAce.jpg
p177
asVFounders Centennial IPA 
p178
(lp179
F5.4
aF36.0
aI1
aI0
aVhttp://res.cloudinary.com/ratebeer/image/upload/w_250,c_limit/beer_3168.jpg
p180
asVBoon Geuze 
p181
(lp182
F4.6
aF29.0
aI1
aI6
aVhttp://res.cloudinary.com/ratebeer/image/upload/w_250,c_limit/beer_4631.jpg
p183
asVOdells Footprint 
p184
(lp185
F9.4
aF7.0
aI1
aI0
aVhttp://beerstreetjournal.com/wp-content/uploads/Screen-Shot-2012-01-31-at-12.09.31-PM.png
p186
asVAnchor IPA 
p187
(lp188
F6.5
aF100.0
aI1
aI0
aVhttps://cdn.beeradvocate.com/im/beers/112128.jpg
p189
asVSiren Vanilla Weisse 
p190
(lp191
F2.8
aF7.0
aI1
aI3
aVhttp://www.beergonzo.co.uk/pictures/c42af04e-4f47-493e-8ff3-1d5522dad993.jpg
p192
asVLagunitas IPA 
p193
(lp194
F4.5
aF40.0
aI1
aI0
aVhttp://res.cloudinary.com/ratebeer/image/upload/w_250,c_limit/beer_6887.jpg
p195
asVCHIMAY RED PREMIERE 
p196
(lp197
F6.1
aF7.0
aI1
aI0
aVhttp://res.cloudinary.com/ratebeer/image/upload/w_250,c_limit/beer_51.jpg
p198
asVBrooklyn Monster Ale 
p199
(lp200
F11.1
aF7.0
aI1
aI0
aVhttp://brooklynbrewery.com/system/beers/11_shelf_monsterale_original.png?1421879941
p201
asVLindemans Spontanbasil 750
p202
(lp203
F4.6
aF29.0
aI1
aI4
aVhttp://res.cloudinary.com/ratebeer/image/upload/w_250,c_limit/beer_331545.jpg
p204
asVStone Brewing Go To IPA Can 33
p205
(lp206
F3.1
aF68.0
aI1
aI0
aVhttp://res.cloudinary.com/ratebeer/image/upload/w_250,c_limit/beer_253833.jpg
p207
asVBrewDog Black Eyed King Imp 33
p208
(lp209
F13.5
aF7.0
aI1
aI0
aVhttp://res.cloudinary.com/ratebeer/image/upload/w_250,c_limit/beer_369326.jpg
p210
asVBoon Kreik Mariage Parfai
p211
(lp212
F6.7
aF7.0
aI1
aI5
aVhttp://res.cloudinary.com/ratebeer/image/upload/w_250,c_limit/beer_6924.jpg
p213
asVCHIMAY WHITE CINQ CENTS 
p214
(lp215
F6.8
aF6.0
aI1
aI0
aVhttp://res.cloudinary.com/ratebeer/image/upload/w_250,c_limit/beer_52.jpg
p216
asVThornbridge HALL Sour Brown 50
p217
(lp218
F7.1
aF7.0
aI1
aI5
aVhttp://res.cloudinary.com/ratebeer/image/upload/w_250,c_limit/beer_97342.jpg
p219
asVPORTERHOUSE PLAIN 
p220
(lp221
F3.1
aF7.0
aI1
aI0
aVhttp://www.theporterhouse.ie/images/beers/bottle-plain.png
p222
asVBrooklyn Hand 
p223
(lp224
F14.3
aF7.0
aI1
aI0
aVhttp://brooklynbrewery.com/system/beers/49_shelf_HandSeal-750ml-Website-LR_original.png?1442434934
p225
asVBrooklyn Local 2 
p226
(lp227
F8.7
aF30.0
aI1
aI0
aVhttp://res.cloudinary.com/ratebeer/image/upload/w_250,c_limit/beer_96545.jpg
p228
asVWEIHENSTEPHANER KRISTALL 
p229
(lp230
F2.2
aF7.0
aI1
aI0
aVhttps://m.danmurphys.com.au/media/DM/Product/750x2000/904075_0_9999_v1_m56577569839962019.jpg
p231
asVLa Trappe Dubbel 
p232
(lp233
F6.8
aF7.0
aI1
aI0
aVhttp://res.cloudinary.com/ratebeer/image/upload/w_250,c_limit/beer_4563.jpg
p234
asVBeavertown Black Betty C 
p235
(lp236
F6.2
aF34.0
aI1
aI0
aVhttp://res.cloudinary.com/ratebeer/image/upload/w_250,c_limit/beer_191161.jpg
p237
asVSTAROPRAMEN 
p238
(lp239
F4.8
aF7.0
aI1
aI0
aVhttp://m.beerforum.co.kr/files/attach/images/1434/163/115/05e8aebc5c738d97f642cc960bb94795.jpg
p240
asVFounders Mango Magnifico 
p241
(lp242
F9.8
aF7.0
aI1
aI0
aVhttp://res.cloudinary.com/ratebeer/image/upload/w_250,c_limit/beer_219170.jpg
p243
asVBuried At Sea Chocolate Milk Stout
p244
(lp245
F4.5
aF100.0
aI1
aI0
aVhttps://lh3.googleusercontent.com/ZmuTr5STboTbtjg-MktoJZl3YiXitvEQ1LrPAEtasW4xgevCdmzpFrDvD6-jkYF8-aQK-bbf9V_wtpb-0K95_UY=s350
p246
asVBoon Kriek 
p247
(lp248
F0.8
aF7.0
aI1
aI2
aVhttp://res.cloudinary.com/ratebeer/image/upload/w_250,c_limit/beer_4505.jpg
p249
asVOud Beersel Beersalis Tripel 7
p250
(lp251
F10.3
aF7.0
aI1
aI0
aVhttp://res.cloudinary.com/ratebeer/image/upload/w_250,c_limit/beer_53967.jpg
p252
asVMetalman Heatsink 
p253
(lp254
F4.5
aF7.0
aI1
aI0
aVhttps://www.obrienswine.ie/media/catalog/product/1/5/15B169-Metalman-Heat-Sink-Porter-33cl-Can.png
p255
asVVICTORY STORM KING 
p256
(lp257
F9.1
aF2.0
aI1
aI0
aVhttp://res.cloudinary.com/ratebeer/image/upload/w_250,c_limit/beer_626.jpg
p258
asVFourpure Juicebox Citrus IPA 5
p259
(lp260
F4.4
aF54.0
aI1
aI0
aVhttp://www.martinsofflicence.ie/cms/images/260x510_p1471345856900_fourpure_juicebox_citrus_ipa_can.jpg
p261
asVCHIMAY BLUE 
p262
(lp263
F8.8
aF7.0
aI1
aI0
aVhttp://res.cloudinary.com/ratebeer/image/upload/w_250,c_limit/beer_53.jpg
p264
asVAnchor Steam Beer 
p265
(lp266
F1.9
aF29.0
aI1
aI0
aVhttp://res.cloudinary.com/ratebeer/image/upload/w_250,c_limit/beer_46.jpg
p267
asVPORTERHOUSE OYSTER STOUT
p268
(lp269
F4.4
aF7.0
aI1
aI0
aVhttp://res.cloudinary.com/ratebeer/image/upload/w_250,c_limit/beer_11379.jpg
p270
asVWEIHENSTEPHANER VITUS 
p271
(lp272
F6.0
aF7.0
aI1
aI0
aVhttp://www.worldbeerawards.com/media/bottles/5382-120x400.jpg
p273
asVAnderson V Brother David 
p274
(lp275
F10.4
aF7.0
aI1
aI0
aVhttp://res.cloudinary.com/ratebeer/image/upload/w_250,c_limit/beer_34081.jpg
p276
asVFounders Imperial Stout 
p277
(lp278
F10.6
aF7.0
aI1
aI0
aVhttp://res.cloudinary.com/ratebeer/image/upload/w_250,c_limit/beer_5933.jpg
p279
asVBrewDog Nanny State 
p280
(lp281
F0.3
aF7.0
aI1
aI0
aVhttp://www.beersofeurope.co.uk/media/catalog/product/cache/1/image/9df78eab33525d08d6e5fb8d27136e95/pimages/BrewdogNannyState.jpg
p282
asVWhite Gypsy Russian Impy 
p283
(lp284
F6.8
aF7.0
aI1
aI0
aVhttp://media.istockphoto.com/photos/beer-bottle-picture-id175533358?k=6&m=175533358&s=170667a&w=0&h=de2hI2j7Ie8LiNCvkRlS-wwxhChsggEDoX9SDagZnAY=
p285
asVAnchor Brekles Brown 
p286
(lp287
F4.3
aF4.0
aI1
aI0
aVhttp://res.cloudinary.com/ratebeer/image/upload/w_250,c_limit/beer_139388.jpg
p288
asVFounders Centennial IPA Can
p289
(lp290
F5.4
aF36.0
aI1
aI0
aVhttp://res.cloudinary.com/ratebeer/image/upload/w_250,c_limit/beer_3168.jpg
p291
asVPeroni Nastro Azzurro 
p292
(lp293
F3.5
aF37.0
aI1
aI0
aVhttp://res.cloudinary.com/ratebeer/image/upload/w_250,c_limit/beer_3029.jpg
p294
asVOscar Blues Old Chub Can 355M
p295
(lp296
F7.1
aF7.0
aI1
aI0
aVhttp://res.cloudinary.com/ratebeer/image/upload/w_250,c_limit/beer_11579.jpg
p297
asVWeihenstephaner Non Alchol 500
p298
(lp299
F-1.2
aF7.0
aI1
aI0
aVhttp://res.cloudinary.com/ratebeer/image/upload/w_250,c_limit/beer_6038.jpg
p300
asVSka Brewing Decadent IPA Can
p301
(lp302
F10.0
aF32.0
aI8
aI0
aVhttp://res.cloudinary.com/ratebeer/image/upload/w_250,c_limit/beer_43088.jpg
p303
asVOdells Trellis Garden Al 
p304
(lp305
F8.3
aF35.0
aI1
aI0
aVhttp://res.cloudinary.com/ratebeer/image/upload/w_250,c_limit/beer_274475.jpg
p306
asVMikkeller Raspberry Quadrupel
p307
(lp308
F12.9
aF7.0
aI1
aI0
aVhttp://res.cloudinary.com/ratebeer/image/upload/w_250,c_limit/beer_317889.jpg
p309
asVSka Brewing Modus Hoperandi Ca
p310
(lp311
F6.2
aF41.0
aI1
aI0
aVhttp://res.cloudinary.com/ratebeer/image/upload/w_250,c_limit/beer_99487.jpg
p312
asVCorona Light
p313
(lp314
F4.6
aF100.0
aI1
aI0
aVhttp://rsvpmagazine.ie/wp-content/uploads/2013/06/Corona-Light.jpg
p315
asVLindemans Cuvee Rene Kriek 750
p316
(lp317
F5.0
aF0.0
aI1
aI6
aVhttp://res.cloudinary.com/ratebeer/image/upload/w_250,c_limit/beer_72448.jpg
p318
asVLagunitas Little Sumpin' 
p319
(lp320
F5.6
aF35.0
aI1
aI0
aVhttp://res.cloudinary.com/ratebeer/image/upload/w_250,c_limit/beer_103006.jpg
p321
asVCHIMAY RED
p322
(lp323
F6.1
aF7.0
aI1
aI0
aVhttp://res.cloudinary.com/ratebeer/image/upload/w_250,c_limit/beer_51.jpg
p324
asVRochefort 10
p325
(lp326
F11.3
aF100.0
aI1
aI0
aVhttp://res.cloudinary.com/ratebeer/image/upload/w_250,c_limit/beer_2360.jpg
p327
asVWicklow Wolf Black Perle 
p328
(lp329
F4.7
aF7.0
aI1
aI0
aVhttp://www.fourcorners.ie/perch/resources/products/black-perle-porterpw-2.jpg
p330
asVOdells Drumroll APA Can 
p331
(lp332
F3.5
aF49.0
aI1
aI0
aVhttp://res.cloudinary.com/ratebeer/image/upload/w_250,c_limit/beer_424542.jpg
p333
asV3 Fonteinen Intense Red 
p334
(lp335
F5.8
aF7.0
aI1
aI0
aVhttps://www.beergium.com/3339-big_default/3-fonteinen-intense-red-oude-kriek-75cl.jpg
p336
asVMikkeller Black Imperial 
p337
(lp338
F15.1
aF100.0
aI1
aI0
aVhttp://res.cloudinary.com/ratebeer/image/upload/w_250,c_limit/beer_83833.jpg
p339
asVLindemans Blossom Geuze 
p340
(lp341
F4.8
aF30.0
aI1
aI5
aVhttps://www.beergium.com/3454-thickbox_default/lindemans-blossom-gueuze-75cl.jpg
p342
asV3 Fonteinen Oude Kreik 
p343
(lp344
F6.3
aF7.0
aI1
aI0
aVhttp://res.cloudinary.com/ratebeer/image/upload/w_250,c_limit/beer_311175.jpg
p345
asVWicklow Wolf Kentucky Com
p346
(lp347
F4.8
aF7.0
aI1
aI1
aVhttps://www.obrienswine.ie/media/catalog/product/1/4/14B123-Wicklow-Wolf-IPA-50cl-Btl.png
p348
asVBirrifico L'Ultima Luna 
p349
(lp350
F14.4
aF7.0
aI1
aI0
aVhttp://lapobbia.com/wp-content/uploads/2013/10/lultima-luna.png
p351
asVSierra Nevada Torpedo
p352
(lp353
F7.2
aF100.0
aI1
aI0
aVhttp://res.cloudinary.com/ratebeer/image/upload/w_250,c_limit/beer_59261.jpg
p354
asVFourpure Session IPA
p355
(lp356
F1.3
aF49.0
aI1
aI0
aVhttps://www.beermerchants.com/media/catalog/product/f/o/four_pure_session_ipa.png
p357
asVOdells Runoff Red Ale 
p358
(lp359
F4.4
aF33.0
aI1
aI0
aVhttp://thefullpint.com/wp-content/uploads/2013/12/odell-runoff-red-ipa-bottle.jpg
p360
asVWEIHENSTEPHANER HEFE 
p361
(lp362
F2.2
aF7.0
aI1
aI0
aVhttp://res.cloudinary.com/ratebeer/image/upload/w_250,c_limit/beer_1156.jpg
p363
asVLa Trappe Quadrupel 
p364
(lp365
F10.0
aF7.0
aI1
aI0
aVhttp://res.cloudinary.com/ratebeer/image/upload/w_250,c_limit/beer_4565.jpg
p366
asVSUNBURNT RED ALE 
p367
(lp368
F3.7
aF6.0
aI1
aI0
aVhttp://res.cloudinary.com/ratebeer/image/upload/w_250,c_limit/beer_154054.jpg
p369
asVOdells Friek 
p370
(lp371
F8.4
aF7.0
aI1
aI5
aVhttp://res.cloudinary.com/ratebeer/image/upload/w_250,c_limit/beer_113162.jpg
p372
asVMaisel 
p373
(lp374
F6.9
aF7.0
aI1
aI0
aVhttp://res.cloudinary.com/ratebeer/image/upload/w_250,c_limit/beer_185853.jpg
p375
asVSierra Nevada Ruthless Ry
p376
(lp377
F5.8
aF40.0
aI1
aI0
aVhttp://res.cloudinary.com/ratebeer/image/upload/w_250,c_limit/beer_159987.jpg
p378
asVSpencer Trappist Ale 
p379
(lp380
F5.2
aF0.0
aI1
aI0
aVhttp://res.cloudinary.com/ratebeer/image/upload/w_250,c_limit/beer_241569.jpg
p381
asVFounders reDANKulous 
p382
(lp383
F9.3
aF7.0
aI1
aI0
aVhttp://media.istockphoto.com/photos/beer-bottle-picture-id175533358?k=6&m=175533358&s=170667a&w=0&h=de2hI2j7Ie8LiNCvkRlS-wwxhChsggEDoX9SDagZnAY=
p384
asVOBrother The Sinner IPA 
p385
(lp386
F6.1
aF38.0
aI1
aI0
aVhttps://cdn.shopify.com/s/files/1/0286/4636/products/15B178-O-Brother-Brewing-Sinner-IPA-50cl-Bottle.png?v=1480078363
p387
asVBrooklyn Black Chocolate 
p388
(lp389
F9.1
aF7.0
aI1
aI0
aVhttp://res.cloudinary.com/ratebeer/image/upload/w_250,c_limit/beer_531.jpg
p390
asVRodenbach Grand Cru 
p391
(lp392
F5.0
aF7.0
aI1
aI5
aVhttp://res.cloudinary.com/ratebeer/image/upload/w_250,c_limit/beer_1194.jpg
p393
asVcks Kinsale 'KPA' 
p394
(lp395
F4.0
aF47.0
aI1
aI0
aVhttp://res.cloudinary.com/ratebeer/image/upload/w_250,c_limit/beer_217458.jpg
p396
asVSierra Nevada Pale Ale Can 473
p397
(lp398
F2.1
aF42.0
aI1
aI0
aVhttp://res.cloudinary.com/ratebeer/image/upload/w_250,c_limit/beer_365.jpg
p399
asVBrewDog Kingpin Lager
p400
(lp401
F2.9
aF29.0
aI1
aI0
aVhttp://www.beersofeurope.co.uk/media/catalog/product/cache/1/image/9df78eab33525d08d6e5fb8d27136e95/pimages/BrewdogKingpin.jpg
p402
asVAnchor Old Foghorn 
p403
(lp404
F9.5
aF7.0
aI1
aI0
aVhttp://res.cloudinary.com/ratebeer/image/upload/w_250,c_limit/beer_4728.jpg
p405
asVSchorsch Bock ICE 30 
p406
(lp407
F29.8
aF7.0
aI1
aI0
aVhttp://biershop.bierpost.com/Media/Thumbs/0003/0003527-schorschbock-ice-30-mit-30-033l-300.gif
p408
asVRascal's Yankee White IPA 
p409
(lp410
F4.8
aF39.0
aI1
aI0
aVhttp://www.martinsofflicence.ie/cms/images/260x510_p1455027156120_rascals_yankee_white_ipa.jpg
p411
asVKrombacher Pils Can 
p412
(lp413
F2.8
aF33.0
aI1
aI0
aVhttp://res.cloudinary.com/ratebeer/image/upload/w_250,c_limit/beer_3370.jpg
p414
asVO'HARAS STOUT 
p415
(lp416
F4.1
aF100.0
aI1
aI0
aVhttp://res.cloudinary.com/ratebeer/image/upload/w_250,c_limit/beer_5830.jpg
p417
asVWhite Hag IPA 
p418
(lp419
F7.2
aF100.0
aI1
aI0
aVhttps://cdn.shopify.com/s/files/1/0286/4636/products/white_hag.jpg?v=1422444987
p420
asVSierra Nevada Hop Hunter 355
p421
(lp422
F6.2
aF100.0
aI1
aI0
aVhttp://res.cloudinary.com/ratebeer/image/upload/w_250,c_limit/beer_250957.jpg
p423
asVBrooklyn Silver Anniversary Lager
p424
(lp425
F8.8
aF7.0
aI1
aI0
aVhttp://res.cloudinary.com/ratebeer/image/upload/w_250,c_limit/beer_204873.jpg
p426
asVAnchor Saison Spring Ale 
p427
(lp428
F6.0
aF7.0
aI1
aI0
aVhttp://www.glunzbeers.com/wp-content/uploads/2014/08/ABCSteam12oz033015SH-HR_crop-496x1024.png
p429
asVStone Barrel Brewing Boom IPA
p430
(lp431
F4.8
aF33.0
aI1
aI0
aVhttp://www.martinsofflicence.ie/cms/images/260x510_p1391086297922_stone-barrel-boom-session-ipa-2.jpg
p432
asVSierra Nevada Nooner Can
p433
(lp434
F2.0
aF41.0
aI1
aI0
aVhttp://res.cloudinary.com/ratebeer/image/upload/w_250,c_limit/beer_307541.jpg
p435
asVCOPPER COAST RED ALE 
p436
(lp437
F4.1
aF7.0
aI1
aI0
aVhttp://dungarvanbrewingcompany.com/wp-content/uploads/2012/10/copper_big1.png
p438
asVBudvar
p439
(lp440
F5.0
aF100.0
aI1
aI0
aVhttp://res.cloudinary.com/ratebeer/image/upload/w_250,c_limit/beer_1316.jpg
p441
asVPuck Pilsner 
p442
(lp443
F4.4
aF0.0
aI1
aI0
aVhttps://www.obrienswine.ie/media/catalog/product/1/5/15B083-Jack-Cody_s-Puck-Pilsner-50cl-Bottle.png
p444
asVOBrother The Fixer Red Ale
p445
(lp446
F5.4
aF36.0
aI1
aI0
aVhttp://www.martinsofflicence.ie/cms/images/260x510_p1472032953577_o-brother-brewing-fixer-amber-ale.jpg
p447
asVFourpure Skyliner Wheat Summer
p448
(lp449
F3.1
aF43.0
aI1
aI0
aVhttps://assets.londonist.com/uploads/2016/05/i730/four.jpg
p450
asVCOOPERS SPK. ALE 
p451
(lp452
F5.8
aF100.0
aI1
aI0
aVhttp://mrliquor.com.au/ma4/images/stories/virtuemart/product/COOPERS_SPK_ALE__51103402ae61d.jpg
p453
asVhenstephaner Original Helle
p454
(lp455
F1.5
aF28.0
aI1
aI0
aVhttp://cdn6.bigcommerce.com/s-fuwlhuh/products/357/images/619/Weihenstephaner_Original_Helles_new__37535.1437385886.490.588.png?c=2
p456
asVWEIHENSTEPHANER DUNKEL 
p457
(lp458
F3.9
aF7.0
aI1
aI0
aVhttp://www.beergonzo.co.uk/pictures/1b972403-ad81-4521-875c-f22b5f098063.jpg
p459
asVFounders Rubaeus Can 
p460
(lp461
F3.7
aF7.0
aI1
aI0
aVhttp://res.cloudinary.com/ratebeer/image/upload/w_250,c_limit/beer_46846.jpg
p462
asVChimay Doree Goud 
p463
(lp464
F3.3
aF4.0
aI1
aI0
aVhttp://res.cloudinary.com/ratebeer/image/upload/w_250,c_limit/beer_14228.jpg
p465
asVTrouble Brewing Dark Arts Port
p466
(lp467
F3.8
aF7.0
aI1
aI0
aVhttp://res.cloudinary.com/ratebeer/image/upload/w_250,c_limit/beer_140325.jpg
p468
asVAnchor Christmas 2015  
p469
(lp470
F5.3
aF7.0
aI1
aI0
aVhttps://2fdltvvn8wp2rn64ywgk8o17-wpengine.netdna-ssl.com/wp-content/uploads/2015/01/anchor-christmas-ale-2014.png
p471
asVSt. Bernardus Abt 12 
p472
(lp473
F10.4
aF32.0
aI1
aI0
aVhttp://res.cloudinary.com/ratebeer/image/upload/w_250,c_limit/beer_2530.jpg
p474
asVWicklow Wolf American Amber
p475
(lp476
F4.5
aF29.0
aI1
aI0
aVhttp://www.fourcorners.ie/perch/resources/products/american-amberpw-2.jpg
p477
asVBrooklyn Local 1
p478
(lp479
F8.8
aF7.0
aI1
aI0
aVhttp://www.omega-level.net/wp-content/uploads/2010/02/Brooklyn-Local-1.jpg
p480
asVLagunitas Wilco Tango Foxtrot
p481
(lp482
F6.9
aF8.0
aI1
aI0
aVhttp://res.cloudinary.com/ratebeer/image/upload/w_250,c_limit/beer_117140.jpg
p483
asVFounders Porter 
p484
(lp485
F5.5
aF7.0
aI1
aI0
aVhttp://res.cloudinary.com/ratebeer/image/upload/w_250,c_limit/beer_3173.jpg
p486
asVFounders KBS 2016 
p487
(lp488
F13.2
aF7.0
aI1
aI0
aVhttp://res.cloudinary.com/ratebeer/image/upload/w_250,c_limit/beer_40544.jpg
p489
asVFounders Dirty Bastard 
p490
(lp491
F8.7
aF7.0
aI1
aI0
aVhttp://res.cloudinary.com/ratebeer/image/upload/w_250,c_limit/beer_11498.jpg
p492
asVOud Beersel Green Walnut 
p493
(lp494
F5.3
aF6.0
aI1
aI6
aVhttp://res.cloudinary.com/ratebeer/image/upload/w_250,c_limit/beer_348368.jpg
p495
asVBlacks Kinsale Black IPA 
p496
(lp497
F4.9
aF31.0
aI1
aI0
aVhttp://res.cloudinary.com/ratebeer/image/upload/w_250,c_limit/beer_236468.jpg
p498
asVBrooklyn K is for Kriek
p499
(lp500
F9.8
aF7.0
aI1
aI3
aVhttp://www.fourcorners.ie/perch/resources/other/k-is-for-kriek-hr.png
p501
asVewDog JackHammer 
p502
(lp503
F6.3
aF57.0
aI1
aI0
aVhttp://res.cloudinary.com/ratebeer/image/upload/w_250,c_limit/beer_178585.jpg
p504
asVBrooklyn Lager
p505
(lp506
F5.2
aF100.0
aI1
aI0
aVhttp://res.cloudinary.com/ratebeer/image/upload/w_120,c_limit/beer_528.jpg
p507
asVBrewDog Restorative Can 
p508
(lp509
F8.5
aF100.0
aI1
aI0
aVhttp://cdn2.bigcommerce.com/server2400/0294a/products/5215/images/5970/Brewdog_Restorative_Beverage__94811.1473857983.1280.1280.jpg?c=2
p510
asVBarefoot Bohemian Lager
p511
(lp512
F3.5
aF32.0
aI1
aI0
aVhttp://www.beersofeurope.co.uk/media/catalog/product/cache/1/image/9df78eab33525d08d6e5fb8d27136e95/pimages/EightdegreesBarefootBohemian.jpg
p513
asVLindemans Faro 
p514
(lp515
F3.9
aF7.0
aI1
aI4
aVhttp://res.cloudinary.com/ratebeer/image/upload/w_250,c_limit/beer_6376.jpg
p516
asVO'Haras Notorious Red IPA
p517
(lp518
F4.5
aF35.0
aI1
aI0
aVhttps://www.obrienswine.ie/media/catalog/product/1/6/16B030-O_Haras-Notorious-Red-IPA-50cl-Bottle.png
p519
asVOscar Blues G'Knight 
p520
(lp521
F6.6
aF7.0
aI1
aI0
aVhttp://extras.mnginteractive.com/live/media/site21/2011/0114/20110114__15dcaoskw~2.jpg
p522
asVBlacks Kinsale 'KPA' Can 
p523
(lp524
F4.0
aF47.0
aI1
aI0
aVhttp://res.cloudinary.com/ratebeer/image/upload/w_250,c_limit/beer_217458.jpg
p525
asVLagunitas Censored 
p526
(lp527
F4.9
aF5.0
aI1
aI0
aVhttp://res.cloudinary.com/ratebeer/image/upload/w_250,c_limit/beer_8829.jpg
p528
asVO'Hara's Imperial Stout 
p529
(lp530
F9.8
aF7.0
aI1
aI0
aVhttp://www.martinsofflicence.ie/cms/images/260x510_p1459254599946_oharas_imperial_stout_20th_anniversary.jpg
p531
asVBeavertown Smog Rocket Can 330
p532
(lp533
F3.8
aF7.0
aI1
aI0
aVhttps://www.beermerchants.com/media/catalog/product/cache/1/image/x400/17f82f742ffe127f42dca9de82fb58b1/b/e/beavertown_smog_rocket_2.png
p534
asVBrooklyn Improved Old Fashione
p535
(lp536
F13.3
aF7.0
aI1
aI0
aVhttp://res.cloudinary.com/ratebeer/image/upload/w_250,c_limit/beer_398364.jpg
p537
asVLagunitas Brown Shugga 
p538
(lp539
F9.6
aF0.0
aI1
aI0
aVhttp://res.cloudinary.com/ratebeer/image/upload/w_250,c_limit/beer_8732.jpg
p540
asVPORTERHOUSE RED 
p541
(lp542
F3.3
aF7.0
aI1
aI0
aVhttp://res.cloudinary.com/ratebeer/image/upload/w_250,c_limit/beer_11376.jpg
p543
asVewDog Bourbon Baby 
p544
(lp545
F5.0
aF7.0
aI1
aI0
aVhttp://res.cloudinary.com/ratebeer/image/upload/w_250,c_limit/beer_252097.jpg
p546
asVWhite Gypsy Doppelbock 
p547
(lp548
F7.4
aF7.0
aI1
aI0
aVhttp://www.martinsofflicence.ie/cms/images/260x510_p1371558542122_23463666.jpg
p549
asVOscar Blues Dales Pale Ale
p550
(lp551
F4.7
aF37.0
aI1
aI0
aVhttp://res.cloudinary.com/ratebeer/image/upload/w_250,c_limit/beer_11576.jpg
p552
asVFounders Mosaic Promise 
p553
(lp554
F4.0
aF52.0
aI1
aI0
aVhttp://res.cloudinary.com/ratebeer/image/upload/w_250,c_limit/beer_226680.jpg
p555
asVSpaten Lager
p556
(lp557
F5.2
aF100.0
aI1
aI0
aVhttp://lakebeverage.com/wp-content/uploads/2015/03/Spaten-Premium-Lager.png
p558
asVCOOPERS PALE ALE 
p559
(lp560
F3.2
aF34.0
aI1
aI0
aVhttp://res.cloudinary.com/ratebeer/image/upload/w_250,c_limit/beer_4060.jpg
p561
asVBrooklyn Intensified Coffee Po
p562
(lp563
F11.8
aF100.0
aI1
aI0
aVhttps://decrescente.net/images/suppliers/brooklyn-brewery/brooklyn-intensified-coffee-porter/intensified-coffee-porter-bottle-lg.png
p564
asVBrewDog Dead Pony Club 
p565
(lp566
F1.3
aF48.0
aI1
aI0
aVhttp://res.cloudinary.com/ratebeer/image/upload/w_250,c_limit/beer_172207.jpg
p567
asVMikkeller Raspberry Trippelboc
p568
(lp569
F13.0
aF7.0
aI1
aI0
aVhttp://res.cloudinary.com/ratebeer/image/upload/w_250,c_limit/beer_317889.jpg
p570
asVBrewDog Ship Wreck 
p571
(lp572
F14.5
aF7.0
aI1
aI0
aVhttp://www.beersofeurope.co.uk/media/catalog/product/cache/1/image/9df78eab33525d08d6e5fb8d27136e95/pimages/BrewdogShipWreck.jpg
p573
asVOdells St. Lupulin
p574
(lp575
F3.9
aF48.0
aI1
aI0
aVhttp://www.martinsofflicence.ie/cms/images/260x510_p1472133158777_st_lupulin_extra_pale_ale_can.jpg
p576
asVBrooklyn East India Pale 
p577
(lp578
F5.2
aF35.0
aI1
aI0
aVhttp://res.cloudinary.com/ratebeer/image/upload/w_250,c_limit/beer_530.jpg
p579
asVBREWDOG TOKYO 
p580
(lp581
F17.2
aF7.0
aI1
aI0
aVhttp://res.cloudinary.com/ratebeer/image/upload/w_250,c_limit/beer_107203.jpg
p582
asVTRIPEL KARMELIET 
p583
(lp584
F7.0
aF7.0
aI1
aI0
aVhttp://res.cloudinary.com/ratebeer/image/upload/w_250,c_limit/beer_5368.jpg
p585
asVStone Arrogant Bastard
p586
(lp587
F7.2
aF100.0
aI1
aI0
aVhttp://stonesalesmaterials.com/wp-content/uploads/2014/09/2014_BourbonABA_bottle_Web.png
p588
asVOud Beersel Oude Geuze 
p589
(lp590
F5.0
aF31.0
aI1
aI6
aVhttp://res.cloudinary.com/ratebeer/image/upload/w_250,c_limit/beer_10907.jpg
p591
asVSierra Nevada Porter 
p592
(lp593
F4.4
aF7.0
aI1
aI0
aVhttp://res.cloudinary.com/ratebeer/image/upload/w_250,c_limit/beer_366.jpg
p594
asVOscar Blues Pinner Throwback I
p595
(lp596
F2.2
aF44.0
aI1
aI0
aVhttp://res.cloudinary.com/ratebeer/image/upload/w_250,c_limit/beer_305178.jpg
p597
asVBrooklyn Cuvee Noir 
p598
(lp599
F10.9
aF7.0
aI1
aI0
aVhttp://brooklynbrewery.com/system/beers/44_shelf_CuveeNoire-750ml-LR_original.png?1442434954
p600
asVBLACK ROCK STOUT 
p601
(lp602
F3.6
aF7.0
aI1
aI0
aVhttp://res.cloudinary.com/ratebeer/image/upload/w_250,c_limit/beer_128477.jpg
p603
asVBrooklyn Wild Streak 
p604
(lp605
F9.4
aF7.0
aI1
aI3
aVhttp://res.cloudinary.com/ratebeer/image/upload/w_250,c_limit/beer_250350.jpg
p606
asVStone Brewing Cali
p607
(lp608
F6.1
aF34.0
aI1
aI0
aVhttp://res.cloudinary.com/ratebeer/image/upload/w_250,c_limit/beer_87480.jpg
p609
asVFourpure Pale Ale Can 
p610
(lp611
F5.0
aF100.0
aI1
aI0
aVhttp://www.pivovarorders.co.uk/user/products/large/fourpure%20american%20pale%20ale%20CAN.jpg
p612
asVSiren Pompelmocello 
p613
(lp614
F3.4
aF47.0
aI1
aI3
aVhttps://www.beermerchants.com/media/catalog/product/s/i/siren_pompelmocello.png
p615
asVBRAINBLASTA 
p616
(lp617
F7.0
aF100.0
aI1
aI0
aVhttp://cdn.shopify.com/s/files/1/0286/4636/products/PorterhouseBrainblasta_grande.jpg?v=1403865154
p618
asVBrooklyn Lager 
p619
(lp620
F3.1
aF32.0
aI1
aI0
aVhttp://res.cloudinary.com/ratebeer/image/upload/w_250,c_limit/beer_528.jpg
p621
asVSierra Nevada Bigfoot 2015 350
p622
(lp623
F10.0
aF7.0
aI1
aI0
aVhttp://res.cloudinary.com/ratebeer/image/upload/w_250,c_limit/beer_371.jpg
p624
asVAecht Schlenkerla Weizen 
p625
(lp626
F3.6
aF7.0
aI1
aI0
aVhttp://res.cloudinary.com/ratebeer/image/upload/w_250,c_limit/beer_8565.jpg
p627
asVWhiplash Rollover Session IPA
p628
(lp629
F3.6
aF47.0
aI1
aI0
aVhttp://res.cloudinary.com/ratebeer/image/upload/w_250,c_limit/beer_412929.jpg
p630
asVSka Brewing Rudie Session IPA
p631
(lp632
F1.5
aF41.0
aI1
aI0
aVhttp://res.cloudinary.com/ratebeer/image/upload/w_250,c_limit/beer_280927.jpg
p633
asVFRANZISKANER HEFE 
p634
(lp635
F2.6
aF7.0
aI1
aI0
aVhttp://res.cloudinary.com/ratebeer/image/upload/w_250,c_limit/beer_1088.jpg
p636
asVSchneider Tap X Maries Rendezv
p637
(lp638
F8.4
aF7.0
aI1
aI0
aVhttp://res.cloudinary.com/ratebeer/image/upload/w_250,c_limit/beer_398355.jpg
p639
asVYeastie Boys Digital IPA 
p640
(lp641
F5.5
aF7.0
aI1
aI0
aVhttp://www.nectar.net/productimages/YEA003%20Yeastie%20Boys%20Digital%20IPA.jpg
p642
asVLeffe Blonde 
p643
(lp644
F5.6
aF7.0
aI1
aI0
aVhttp://res.cloudinary.com/ratebeer/image/upload/w_250,c_limit/beer_2514.jpg
p645
asVFounders Rubaeus 
p646
(lp647
F3.7
aF7.0
aI1
aI0
aVhttp://res.cloudinary.com/ratebeer/image/upload/w_250,c_limit/beer_46846.jpg
p648
asVOscar Blues Mama's Little Yell
p649
(lp650
F2.7
aF38.0
aI1
aI0
aVhttp://1.bp.blogspot.com/-IVe8S-HOOjg/VS24Xe9LbQI/AAAAAAAAiPo/XYp4d-aOvTo/s1600/mama's%2Blittle%2Byella%2Bpils%2Boskar%2Bblues.png
p651
asVLagunitas Stoopid Wit 
p652
(lp653
F4.7
aF42.0
aI1
aI0
aVhttp://res.cloudinary.com/ratebeer/image/upload/w_250,c_limit/beer_435254.jpg
p654
asVBeoir Chorca Cul Dorcha
p655
(lp656
F4.8
aF7.0
aI1
aI0
aVhttp://www.martinsofflicence.ie/cms/images/260x510_p1389718576762_west-kerry-cul-dorcha.jpg
p657
asVBrewDog Dead Pony Club
p658
(lp659
F3.8
aF100.0
aI1
aI0
aVhttp://res.cloudinary.com/ratebeer/image/upload/w_250,c_limit/beer_172207.jpg
p660
asVBrewDog Sink The Bismark 
p661
(lp662
F43.1
aF29.0
aI1
aI0
aVhttp://beerstore.com.au/wp-content/uploads/2015/10/brew-dog-sink-bismark-beer-online-1369618023.jpg
p663
asVO'Haras Hop Adventure 
p664
(lp665
F5.0
aF100.0
aI1
aI0
aVhttp://www.martinsofflicence.ie/cms/images/260x510_p1437398797618_o%E2%80%99hara%E2%80%99s-hop-adventure-sorachi-ace.jpg
p666
asVFounders Breakfast Stout 
p667
(lp668
F8.0
aF7.0
aI1
aI0
aVhttp://res.cloudinary.com/ratebeer/image/upload/w_250,c_limit/beer_14956.jpg
p669
asVBrewDog Jet Black Heart 
p670
(lp671
F4.1
aF7.0
aI1
aI0
aVhttp://res.cloudinary.com/ratebeer/image/upload/w_250,c_limit/beer_395517.jpg
p672
asVOdell's Lugene Choco Milk Stou
p673
(lp674
F7.0
aF7.0
aI1
aI0
aVhttp://res.cloudinary.com/ratebeer/image/upload/w_250,c_limit/beer_194215.jpg
p675
asVWESTMALLE DUBBEL 
p676
(lp677
F6.4
aF7.0
aI1
aI0
aVhttp://res.cloudinary.com/ratebeer/image/upload/w_250,c_limit/beer_2205.jpg
p678
asVDeus 
p679
(lp680
F11.5
aF100.0
aI1
aI0
aVhttp://res.cloudinary.com/ratebeer/image/upload/w_250,c_limit/beer_18912.jpg
p681
asVStormy Port Irish Porter 
p682
(lp683
F4.4
aF7.0
aI1
aI0
aVhttp://res.cloudinary.com/ratebeer/image/upload/w_250,c_limit/beer_164660.jpg
p684
asVMetalman Equinox 
p685
(lp686
F3.7
aF38.0
aI1
aI0
aVhttp://www.martinsofflicence.ie/cms/images/260x510_p1440510769881_metal-man-2.jpg
p687
asVTrouble Brewing Deception
p688
(lp689
F2.2
aF35.0
aI1
aI0
aVhttp://res.cloudinary.com/ratebeer/image/upload/w_250,c_limit/beer_247307.jpg
p690
asVMetalman Pale Ale
p691
(lp692
F2.8
aF48.0
aI1
aI0
aVhttp://www.fourcorners.ie/perch/resources/other/metalman-pale-ale.png
p693
asVRanke Hop Harvest 2015
p694
(lp695
F5.8
aF7.0
aI1
aI0
aVhttp://res.cloudinary.com/ratebeer/image/upload/w_250,c_limit/beer_189698.jpg
p696
asV3 Fonteinen Oude Kreik
p697
(lp698
F5.3
aF7.0
aI1
aI0
aVhttp://res.cloudinary.com/ratebeer/image/upload/w_250,c_limit/beer_311175.jpg
p699
asVSierra Nevada Pale Ale 
p700
(lp701
F2.1
aF42.0
aI1
aI0
aVhttp://res.cloudinary.com/ratebeer/image/upload/w_250,c_limit/beer_365.jpg
p702
asVAnchor Zymaster No. 6 
p703
(lp704
F5.8
aF7.0
aI1
aI0
aVhttps://s-media-cache-ak0.pinimg.com/236x/72/4c/6a/724c6a75be9eff71bca6ba68cb854eee.jpg
p705
asVOscar Blues Pinner Passion Fruit
p706
(lp707
F2.7
aF46.0
aI1
aI0
aVhttp://www.oakbarrel.com.au/images/products/lg_3447.jpg
p708
asVSam Adams Rebel IPA 
p709
(lp710
F5.2
aF40.0
aI1
aI0
aVhttp://res.cloudinary.com/ratebeer/image/upload/w_250,c_limit/beer_222791.jpg
p711
asVSierra Nevada North Harvest
p712
(lp713
F6.7
aF100.0
aI1
aI0
aVhttp://res.cloudinary.com/ratebeer/image/upload/w_250,c_limit/beer_131958.jpg
p714
asVThornbridge Jaipur 
p715
(lp716
F3.2
aF49.0
aI1
aI0
aVhttp://res.cloudinary.com/ratebeer/image/upload/w_250,c_limit/beer_48795.jpg
p717
asVLagunitas Lucky 13 
p718
(lp719
F8.6
aF7.0
aI1
aI0
aVhttps://lagunitas.com/u/img/beer-images/lucky13/Lucky-13-Lagunitas-12-oz-Bottle.png
p720
asVStone IPA Can 
p721
(lp722
F4.9
aF46.0
aI1
aI0
aVhttp://res.cloudinary.com/ratebeer/image/upload/w_250,c_limit/beer_422.jpg
p723
asVFounders Sumatra Mountain Brow
p724
(lp725
F8.7
aF7.0
aI1
aI0
aVhttp://res.cloudinary.com/ratebeer/image/upload/w_250,c_limit/beer_135773.jpg
p726
asVBeavertown Neck Oil Can 330
p727
(lp728
F4.3
aF100.0
aI1
aI0
aVimage not found
p729
asVSka Brewing Modus Mandarina 35
p730
(lp731
F6.2
aF43.0
aI1
aI0
aVhttp://res.cloudinary.com/ratebeer/image/upload/w_250,c_limit/beer_260630.jpg
p732
asVWhite Hag Wit 
p733
(lp734
F3.9
aF6.0
aI1
aI0
aVhttp://www.beersofeurope.co.uk/media/catalog/product/cache/1/image/9df78eab33525d08d6e5fb8d27136e95/pimages/TheWhiteHagRedDoe.jpg
p735
asVAnchor Liberty Ale 
p736
(lp737
F4.5
aF43.0
aI1
aI0
aVhttp://res.cloudinary.com/ratebeer/image/upload/w_250,c_limit/beer_47.jpg
p738
asVTrouble Brewing Sabotage IPA
p739
(lp740
F5.1
aF36.0
aI1
aI0
aVhttp://www.martinsofflicence.ie/cms/images/708x708_p1374748070442_trouble_brewing_sabotage_india_pale_ale.jpg
p741
asVDupont Avec Bons Voeux 
p742
(lp743
F8.7
aF5.0
aI1
aI0
aVhttp://res.cloudinary.com/ratebeer/image/upload/w_250,c_limit/beer_11047.jpg
p744
asVOud Beersel Oude Kriek 
p745
(lp746
F5.8
aF3.0
aI1
aI6
aVhttp://res.cloudinary.com/ratebeer/image/upload/w_250,c_limit/beer_10908.jpg
p747
asVLagunitas Pale Ale 
p748
(lp749
F3.5
aF48.0
aI1
aI0
aVhttp://res.cloudinary.com/ratebeer/image/upload/w_250,c_limit/beer_86876.jpg
p750
asVSierra Nevada Torpedo 
p751
(lp752
F6.7
aF41.0
aI1
aI0
aVhttp://res.cloudinary.com/ratebeer/image/upload/w_250,c_limit/beer_59261.jpg
p753
asVBeavertown 8 Ball
p754
(lp755
F6.0
aF7.0
aI1
aI0
aVhttp://www.cavedirect.com/img/db/product-large/beavertown-8-ball-cave-direct.jpg
p756
asVVeltins Pilsner 
p757
(lp758
F3.2
aF35.0
aI1
aI0
aVhttp://res.cloudinary.com/ratebeer/image/upload/w_250,c_limit/beer_4040.jpg
p759
asVWESTMALLE TRIPEL 
p760
(lp761
F8.6
aF5.0
aI1
aI0
aVhttp://res.cloudinary.com/ratebeer/image/upload/w_250,c_limit/beer_2204.jpg
p762
asVRascal's Big Hop Red Can 
p763
(lp764
F5.0
aF31.0
aI1
aI0
aVhttp://www.martinsofflicence.ie/cms/images/260x510_p1455027698855_rascals_big_hop_red.jpg
p765
asVO'Hara's Leann Follain 
p766
(lp767
F8.7
aF7.0
aI1
aI0
aVhttp://www.beersofeurope.co.uk/media/catalog/product/cache/1/image/9df78eab33525d08d6e5fb8d27136e95/pimages/OharasLeannFollain.jpg
p768
asVSierra Nevada Pale Ale Can 355
p769
(lp770
F2.1
aF42.0
aI1
aI0
aVhttp://res.cloudinary.com/ratebeer/image/upload/w_250,c_limit/beer_365.jpg
p771
asVBrewDog Vagabond P A 
p772
(lp773
F1.7
aF38.0
aI1
aI0
aVhttp://res.cloudinary.com/ratebeer/image/upload/w_250,c_limit/beer_304469.jpg
p774
asVLagunitas The Down Low 
p775
(lp776
F3.3
aF52.0
aI1
aI0
aVhttps://lagunitas.com/u/img/beer-images/downlow/DownLow_Web.png
p777
asVBeavertown Gamma Ray Can
p778
(lp779
F2.4
aF51.0
aI1
aI0
aVhttp://res.cloudinary.com/ratebeer/image/upload/w_250,c_limit/beer_189363.jpg
p780
asVBirrifico Verdi Black Jack
p781
(lp782
F9.8
aF7.0
aI1
aI0
aVhttp://res.cloudinary.com/ratebeer/image/upload/w_120,c_limit/beer_124259.jpg
p783
asVO'HARAS LEANN FOLLAIN 
p784
(lp785
F5.2
aF7.0
aI1
aI0
aVhttp://res.cloudinary.com/ratebeer/image/upload/w_250,c_limit/beer_100788.jpg
p786
asVOBrother The Chancer APA 
p787
(lp788
F5.3
aF38.0
aI1
aI0
aVhttps://www.obrienswine.ie/media/catalog/product/1/5/15B180-O-Brother-Brewing-Chancer-APA-50cl-Bottle.png
p789
asVThornbridge Eldon 
p790
(lp791
F7.1
aF7.0
aI1
aI0
aVhttp://www.pivovarorders.co.uk/user/products/large/ELDON%20BOTTLE.png
p792
asVBrewDog Punk IPA Can 
p793
(lp794
F5.4
aF7.0
aI1
aI0
aVhttps://molloys.ie/media/catalog/product/cache/1/image/500x500/9df78eab33525d08d6e5fb8d27136e95/b/r/brewdog_punk_ipa_330ml_can_thumbnail.png
p795
asVO'HARAS IRISH PALE ALE 
p796
(lp797
F3.9
aF41.0
aI1
aI0
aVhttp://res.cloudinary.com/ratebeer/image/upload/w_250,c_limit/beer_126380.jpg
p798
asVBlacks Kinsale Equinox
p799
(lp800
F5.5
aF100.0
aI1
aI0
aVhttps://www.irelandcraftbeers.com/uploads/images/products/thumb_blacks-of-kinsale-rocket-ship-ipa_20151118203701.png
p801
as.