(dp0
VKNOCKMEALDOWN PORTER 
p1
(lp2
F4.8
aF7.0
aI32
aI0
aVhttp://res.cloudinary.com/ratebeer/image/upload/w_250,c_limit/beer_160562.jpg
p3
asVSierra Nevada Pale Ale 
p4
(lp5
F2.1
aF42.0
aI4
aI0
aVhttp://res.cloudinary.com/ratebeer/image/upload/w_250,c_limit/beer_365.jpg
p6
asVSka Brewing Decadent IPA Can
p7
(lp8
F10.0
aF32.0
aI8
aI0
aVhttp://res.cloudinary.com/ratebeer/image/upload/w_250,c_limit/beer_43088.jpg
p9
asVLa Trappe Tripel 
p10
(lp11
F8.0
aF7.0
aI8
aI0
aVhttp://res.cloudinary.com/ratebeer/image/upload/w_250,c_limit/beer_4564.jpg
p12
asVBoon Oude Geuze Black Label
p13
(lp14
F6.0
aF7.0
aI3
aI6
aVhttp://res.cloudinary.com/ratebeer/image/upload/w_250,c_limit/beer_367485.jpg
p15
asVBlacks Kinsale Equinox
p16
(lp17
F5.5
aF100.0
aI5
aI0
aVhttp://media.istockphoto.com/photos/beer-bottle-picture-id175533358?k=6&m=175533358&s=170667a&w=0&h=de2hI2j7Ie8LiNCvkRlS-wwxhChsggEDoX9SDagZnAY=
p18
asVO'HARAS IRISH RED 
p19
(lp20
F2.9
aF25.0
aI9
aI0
aVhttp://res.cloudinary.com/ratebeer/image/upload/w_250,c_limit/beer_44140.jpg
p21
asVLittle Creatures Pale Ale 330M
p22
(lp23
F3.1
aF40.0
aI4
aI0
aVhttp://res.cloudinary.com/ratebeer/image/upload/w_250,c_limit/beer_7658.jpg
p24
asVAnchor Christmas 2015 
p25
(lp26
F5.3
aF36.0
aI19
aI0
aVhttps://2fdltvvn8wp2rn64ywgk8o17-wpengine.netdna-ssl.com/wp-content/uploads/2015/01/anchor-christmas-ale-2014.png
p27
asVSiren Maiden 
p28
(lp29
F10.8
aF14.0
aI27
aI0
aVhttp://i.imgur.com/6a7qzDw.jpg
p30
asVBrewDog Elvis Juice 
p31
(lp32
F6.3
aF55.0
aI5
aI0
aVhttp://i.imgur.com/tY9usyK.jpg
p33
asVOud Beersel Framboise 
p34
(lp35
F3.6
aF7.0
aI9
aI4
aVhttp://res.cloudinary.com/ratebeer/image/upload/w_250,c_limit/beer_49975.jpg
p36
asVPorterhouse Celebration Stout
p37
(lp38
F6.8
aF20.0
aI35
aI0
aVhttp://res.cloudinary.com/ratebeer/image/upload/w_250,c_limit/beer_145625.jpg
p39
asVBirrifico L'Ultima Luna 
p40
(lp41
F14.4
aF32.0
aI32
aI0
aVhttp://lapobbia.com/wp-content/uploads/2013/10/lultima-luna.png
p42
asVKrombacher Pils Can 
p43
(lp44
F2.8
aF10.0
aI4
aI0
aVhttp://res.cloudinary.com/ratebeer/image/upload/w_250,c_limit/beer_3370.jpg
p45
asVSierra Nevada Ruthless Rye
p46
(lp47
F5.8
aF40.0
aI11
aI0
aVhttp://res.cloudinary.com/ratebeer/image/upload/w_250,c_limit/beer_159987.jpg
p48
asVOdells Fernet Aged Porter
p49
(lp50
F9.4
aF12.0
aI35
aI0
aVhttp://www.beersofeurope.co.uk/media/catalog/product/cache/1/image/9df78eab33525d08d6e5fb8d27136e95/pimages/OdellFernetAgedPorter.jpg
p51
asVOscar Blues Old Chub
p52
(lp53
F7.1
aF23.0
aI14
aI0
aVhttp://res.cloudinary.com/ratebeer/image/upload/w_250,c_limit/beer_11579.jpg
p54
asVBrooklyn Blast Ale 
p55
(lp56
F7.7
aF38.0
aI1
aI0
aVhttp://res.cloudinary.com/ratebeer/image/upload/w_250,c_limit/beer_51334.jpg
p57
asVSamuel Adams Boston Lager
p58
(lp59
F2.6
aF31.0
aI4
aI0
aVhttp://res.cloudinary.com/ratebeer/image/upload/w_250,c_limit/beer_158.jpg
p60
asVBzat Kriekenlambiek Oud Beerse
p61
(lp62
F8.0
aF100.0
aI1
aI6
aVhttp://res.cloudinary.com/ratebeer/image/upload/w_250,c_limit/beer_184275.jpg
p63
asVStone Brewing Ruination IPA Ca
p64
(lp65
F7.1
aF79.0
aI3
aI0
aVhttp://res.cloudinary.com/ratebeer/image/upload/w_250,c_limit/beer_14709.jpg
p66
asVMOOSEHEAD 
p67
(lp68
F5.0
aF12.0
aI2
aI0
aVhttp://www.moosehead.de/files/photos/moosehead-de-goodyfood-klaus-kunze-moosehead-lager-large.png
p69
asVSierra Nevada Hoptimum 
p70
(lp71
F10.2
aF89.0
aI5
aI0
aVhttp://res.cloudinary.com/ratebeer/image/upload/w_250,c_limit/beer_117825.jpg
p72
asVWicklow Wolf IPA 
p73
(lp74
F6.4
aF42.0
aI4
aI0
aVhttp://res.cloudinary.com/ratebeer/image/upload/w_250,c_limit/beer_303283.jpg
p75
asVCURIM 
p76
(lp77
F2.7
aF14.0
aI3
aI0
aVhttp://res.cloudinary.com/ratebeer/image/upload/w_250,c_limit/beer_4941.jpg
p78
asVCamden Town IHL Barrel Aged 66
p79
(lp80
F7.3
aF28.0
aI15
aI0
aVhttp://res.cloudinary.com/ratebeer/image/upload/w_250,c_limit/beer_316205.jpg
p81
asVRascal's Wunderbar IPA
p82
(lp83
F5.7
aF32.0
aI3
aI0
aVhttp://www.martinsofflicence.ie/cms/images/260x510_p1469807501849_wunderbar_render.jpg
p84
asVSt. Bernardus Tripel 
p85
(lp86
F6.7
aF9.0
aI3
aI0
aVhttp://res.cloudinary.com/ratebeer/image/upload/w_250,c_limit/beer_2528.jpg
p87
asVChapeau Cuvee Oude Geuze 
p88
(lp89
F3.5
aF6.0
aI3
aI7
aVhttp://res.cloudinary.com/ratebeer/image/upload/w_250,c_limit/beer_6241.jpg
p90
asVO'Hara's Double IPA 
p91
(lp92
F5.6
aF31.0
aI4
aI0
aVhttp://res.cloudinary.com/ratebeer/image/upload/w_250,c_limit/beer_204890.jpg
p93
asVLagunitas Equinox 
p94
(lp95
F7.5
aF35.0
aI8
aI0
aVhttps://s-media-cache-ak0.pinimg.com/originals/14/fb/bd/14fbbd3dca6239a9b85ad1b6aaef6977.png
p96
asVLa Trappe Blonde 
p97
(lp98
F5.8
aF7.0
aI4
aI0
aVhttp://res.cloudinary.com/ratebeer/image/upload/w_250,c_limit/beer_10380.jpg
p99
asVBoon Framboise 
p100
(lp101
F5.0
aF7.0
aI9
aI3
aVhttp://res.cloudinary.com/ratebeer/image/upload/w_250,c_limit/beer_4430.jpg
p102
asVOscar Blues Pinner Throwback I
p103
(lp104
F2.2
aF44.0
aI4
aI0
aVhttp://res.cloudinary.com/ratebeer/image/upload/w_250,c_limit/beer_305178.jpg
p105
asVBrewdog Hardcore IPA
p106
(lp107
F9.0
aF67.0
aI4
aI0
aVhttp://res.cloudinary.com/ratebeer/image/upload/w_250,c_limit/beer_118721.jpg
p108
asVBzat Lambiek Oud Beersel 
p109
(lp110
F6.8
aF29.0
aI3
aI7
aVhttp://res.cloudinary.com/ratebeer/image/upload/w_250,c_limit/beer_184275.jpg
p111
asVSierra Nevada Barrel Aged Bigf
p112
(lp113
F13.1
aF35.0
aI19
aI0
aVhttp://res.cloudinary.com/ratebeer/image/upload/w_250,c_limit/beer_65123.jpg
p114
asVDungarvan Mine Head 
p115
(lp116
F5.5
aF34.0
aI5
aI0
aVhttp://dungarvanbrewingcompany.com/wp-content/uploads/2012/10/mine_big.png
p117
asVLeft Hand Wake Up Dead 
p118
(lp119
F9.5
aF34.0
aI30
aI0
aVhttp://lefthandbrewing.com/wp/wp-content/uploads/2013/06/wakeupdead1.png
p120
asVSiren White Tips 
p121
(lp122
F2.3
aF20.0
aI2
aI0
aVhttp://i.imgur.com/CFHyvMI.jpg
p123
asVOdells Trellis Garden
p124
(lp125
F8.3
aF35.0
aI8
aI0
aVhttp://res.cloudinary.com/ratebeer/image/upload/w_250,c_limit/beer_274475.jpg
p126
asVFourpure Oatmeal Stout
p127
(lp128
F4.9
aF27.0
aI33
aI0
aVhttps://www.beermerchants.com/media/catalog/product/f/o/four_pure_oatmeal_stout.png
p129
asVBrewDog JackHammer Can 
p130
(lp131
F6.3
aF57.0
aI5
aI0
aVhttp://res.cloudinary.com/ratebeer/image/upload/w_250,c_limit/beer_178585.jpg
p132
asVFounders Devil Dancer 
p133
(lp134
F11.6
aF32.0
aI21
aI0
aVhttp://res.cloudinary.com/ratebeer/image/upload/w_250,c_limit/beer_34518.jpg
p135
asVMikkeller Raspberry Trippelboc
p136
(lp137
F13.0
aF15.0
aI7
aI0
aVhttp://res.cloudinary.com/ratebeer/image/upload/w_250,c_limit/beer_317889.jpg
p138
asVThird Circle Samhradh 
p139
(lp140
F4.4
aF16.0
aI4
aI0
aVhttp://media.istockphoto.com/photos/beer-bottle-picture-id175533358?k=6&m=175533358&s=170667a&w=0&h=de2hI2j7Ie8LiNCvkRlS-wwxhChsggEDoX9SDagZnAY=
p141
asVBay Ale Irish Red Ale 
p142
(lp143
F4.3
aF29.0
aI7
aI0
aVhttp://noreast.ie/Content/Images/Beers/galwaybay_bay_ale.jpg
p144
asVCHIMAY BLUE GRANDE RES
p145
(lp146
F8.8
aF12.0
aI14
aI0
aVhttp://res.cloudinary.com/ratebeer/image/upload/w_250,c_limit/beer_53.jpg
p147
asVMikkeller Spontan Cherry 
p148
(lp149
F6.6
aF7.0
aI10
aI4
aVhttp://res.cloudinary.com/ratebeer/image/upload/w_250,c_limit/beer_205607.jpg
p150
asVChimay White
p151
(lp152
F8.0
aF11.0
aI4
aI0
aVhttp://res.cloudinary.com/ratebeer/image/upload/w_250,c_limit/beer_52.jpg
p153
asVKinnegar Brewing Yannaroddy
p154
(lp155
F4.4
aF7.0
aI2
aI0
aVhttp://www.martinsofflicence.ie/cms/images/737x737_p1395749582350_kinnegar_yannaroddy_porter..jpg
p156
asVAnchor Porter 
p157
(lp158
F4.6
aF35.0
aI36
aI0
aVhttp://res.cloudinary.com/ratebeer/image/upload/w_250,c_limit/beer_48.jpg
p159
asVLeft Hand Smokejumper 
p160
(lp161
F7.4
aF34.0
aI23
aI0
aVhttp://res.cloudinary.com/ratebeer/image/upload/w_250,c_limit/beer_65635.jpg
p162
asVBrewDog JackHammer 
p163
(lp164
F6.3
aF57.0
aI6
aI0
aVhttp://res.cloudinary.com/ratebeer/image/upload/w_250,c_limit/beer_178585.jpg
p165
asVBrewDog Cocoa Psycho
p166
(lp167
F10.0
aF15.0
aI26
aI0
aVhttp://www.worldbeerawards.com/media/bottles/23476-120x400.jpg
p168
asVBlackJack Drogheda Cream 
p169
(lp170
F4.6
aF18.0
aI5
aI0
aVhttp://www.martinsofflicence.ie/cms/images/260x510_p1425993781860_jack-codys-black-jack,-drogheda-cream-stout-3.jpg
p171
asVBrewDog 5AM Saint 
p172
(lp173
F4.8
aF56.0
aI11
aI0
aVhttp://beerstore.com.au/wp-content/uploads/2015/10/brewdog-5am-saint-beer-online-1378101233.jpg
p174
asVAsahi 
p175
(lp176
F5.0
aF14.0
aI3
aI0
aVhttp://www.odonovansofflicence.com/wp-content/uploads/2016/03/BEBTASAH5001.jpeg
p177
asVLindemans Cuvee Rene Oude Gueze
p178
(lp179
F5.8
aF7.0
aI3
aI6
aVhttp://www.merchantduvin.com/images/i-lindemans-cuvee-rene-gueuze-lambic.png
p180
asVThornbridge HALL Double Scotch
p181
(lp182
F7.7
aF7.0
aI9
aI0
aVhttp://www.beergonzo.co.uk/pictures/3a90fb6b-b4a2-484c-98d8-bb7b1a0d9c9a.jpg
p183
asVBREWDOG PUNK IPA 
p184
(lp185
F5.4
aF45.0
aI4
aI0
aVhttps://www.shoppersvineyard.com/images/labels/brewdog-punk-ipa.gif
p186
asVFounders Centennial IPA 
p187
(lp188
F5.4
aF36.0
aI4
aI0
aVhttp://res.cloudinary.com/ratebeer/image/upload/w_250,c_limit/beer_3168.jpg
p189
asVBoon Geuze 
p190
(lp191
F4.6
aF29.0
aI3
aI6
aVhttp://res.cloudinary.com/ratebeer/image/upload/w_250,c_limit/beer_4631.jpg
p192
asVOdells Footprint 
p193
(lp194
F9.4
aF44.0
aI15
aI0
aVhttp://beerstreetjournal.com/wp-content/uploads/Screen-Shot-2012-01-31-at-12.09.31-PM.png
p195
asVAnchor IPA 
p196
(lp197
F6.5
aF55.0
aI4
aI0
aVhttps://cdn.beeradvocate.com/im/beers/112128.jpg
p198
asVLagunitas IPA 
p199
(lp200
F4.5
aF40.0
aI3
aI0
aVhttp://res.cloudinary.com/ratebeer/image/upload/w_250,c_limit/beer_6887.jpg
p201
asVCHIMAY RED PREMIERE 
p202
(lp203
F6.1
aF9.0
aI11
aI0
aVhttp://res.cloudinary.com/ratebeer/image/upload/w_250,c_limit/beer_51.jpg
p204
asVBrooklyn Monster Ale 
p205
(lp206
F11.1
aF7.0
aI1
aI0
aVhttp://brooklynbrewery.com/system/beers/11_shelf_monsterale_original.png?1421879941
p207
asVLindemans Spontanbasil 750
p208
(lp209
F4.6
aF29.0
aI1
aI4
aVhttp://res.cloudinary.com/ratebeer/image/upload/w_250,c_limit/beer_331545.jpg
p210
asVBrewDog Punk IPA
p211
(lp212
F5.4
aF7.0
aI4
aI0
aVhttps://www.shoppersvineyard.com/images/labels/brewdog-punk-ipa.gif
p213
asVStone Brewing Go To IPA Can 33
p214
(lp215
F3.1
aF68.0
aI1
aI0
aVhttp://res.cloudinary.com/ratebeer/image/upload/w_250,c_limit/beer_253833.jpg
p216
asVBrewDog Black Eyed King Imp 33
p217
(lp218
F13.5
aF7.0
aI1
aI0
aVhttp://res.cloudinary.com/ratebeer/image/upload/w_250,c_limit/beer_369326.jpg
p219
asVBoon Kreik Mariage Parfai
p220
(lp221
F6.7
aF7.0
aI1
aI5
aVhttp://res.cloudinary.com/ratebeer/image/upload/w_250,c_limit/beer_6924.jpg
p222
asVCHIMAY WHITE CINQ CENTS 
p223
(lp224
F6.8
aF6.0
aI1
aI0
aVhttp://res.cloudinary.com/ratebeer/image/upload/w_250,c_limit/beer_52.jpg
p225
asVThornbridge HALL Sour Brown 50
p226
(lp227
F7.1
aF7.0
aI1
aI5
aVhttp://res.cloudinary.com/ratebeer/image/upload/w_250,c_limit/beer_97342.jpg
p228
asVBrooklyn Hand 
p229
(lp230
F14.3
aF7.0
aI1
aI0
aVhttp://brooklynbrewery.com/system/beers/49_shelf_HandSeal-750ml-Website-LR_original.png?1442434934
p231
asVBrooklyn Local 2 
p232
(lp233
F8.7
aF30.0
aI1
aI0
aVhttp://res.cloudinary.com/ratebeer/image/upload/w_250,c_limit/beer_96545.jpg
p234
asVWEIHENSTEPHANER KRISTALL 
p235
(lp236
F2.2
aF7.0
aI1
aI0
aVhttps://m.danmurphys.com.au/media/DM/Product/750x2000/904075_0_9999_v1_m56577569839962019.jpg
p237
asVLa Trappe Dubbel 
p238
(lp239
F6.8
aF7.0
aI1
aI0
aVhttp://res.cloudinary.com/ratebeer/image/upload/w_250,c_limit/beer_4563.jpg
p240
asVBREWDOG TOKYO 
p241
(lp242
F17.2
aF56.0
aI28
aI0
aVhttp://res.cloudinary.com/ratebeer/image/upload/w_250,c_limit/beer_107203.jpg
p243
asVSTAROPRAMEN 
p244
(lp245
F4.8
aF7.0
aI1
aI0
aVhttp://m.beerforum.co.kr/files/attach/images/1434/163/115/05e8aebc5c738d97f642cc960bb94795.jpg
p246
asVFounders Mango Magnifico 
p247
(lp248
F9.8
aF7.0
aI1
aI0
aVhttp://res.cloudinary.com/ratebeer/image/upload/w_250,c_limit/beer_219170.jpg
p249
asVBuried At Sea Chocolate Milk Stout
p250
(lp251
F4.5
aF12.0
aI21
aI0
aVhttps://lh3.googleusercontent.com/ZmuTr5STboTbtjg-MktoJZl3YiXitvEQ1LrPAEtasW4xgevCdmzpFrDvD6-jkYF8-aQK-bbf9V_wtpb-0K95_UY=s350
p252
asVBoon Kriek 
p253
(lp254
F0.8
aF7.0
aI1
aI2
aVhttp://res.cloudinary.com/ratebeer/image/upload/w_250,c_limit/beer_4505.jpg
p255
asVOud Beersel Beersalis Tripel 7
p256
(lp257
F10.3
aF7.0
aI1
aI0
aVhttp://res.cloudinary.com/ratebeer/image/upload/w_250,c_limit/beer_53967.jpg
p258
asVMetalman Heatsink 
p259
(lp260
F4.5
aF7.0
aI1
aI0
aVhttps://www.obrienswine.ie/media/catalog/product/1/5/15B169-Metalman-Heat-Sink-Porter-33cl-Can.png
p261
asVVICTORY STORM KING 
p262
(lp263
F9.1
aF2.0
aI1
aI0
aVhttp://res.cloudinary.com/ratebeer/image/upload/w_250,c_limit/beer_626.jpg
p264
asVFourpure Juicebox Citrus IPA 5
p265
(lp266
F4.4
aF54.0
aI1
aI0
aVhttp://www.martinsofflicence.ie/cms/images/260x510_p1471345856900_fourpure_juicebox_citrus_ipa_can.jpg
p267
asVCHIMAY BLUE 
p268
(lp269
F8.8
aF7.0
aI1
aI0
aVhttp://res.cloudinary.com/ratebeer/image/upload/w_250,c_limit/beer_53.jpg
p270
asVPORTERHOUSE OYSTER STOUT
p271
(lp272
F4.4
aF7.0
aI1
aI0
aVhttp://res.cloudinary.com/ratebeer/image/upload/w_250,c_limit/beer_11379.jpg
p273
asVWEIHENSTEPHANER VITUS 
p274
(lp275
F6.0
aF7.0
aI1
aI0
aVhttp://www.worldbeerawards.com/media/bottles/5382-120x400.jpg
p276
asVFounders Imperial Stout 
p277
(lp278
F10.6
aF7.0
aI1
aI0
aVhttp://res.cloudinary.com/ratebeer/image/upload/w_250,c_limit/beer_5933.jpg
p279
asVWeihenstephaner Non Alchol
p280
(lp281
F0.0
aF7.0
aI3
aI0
aVhttp://res.cloudinary.com/ratebeer/image/upload/w_250,c_limit/beer_6038.jpg
p282
asVBrewDog Nanny State 
p283
(lp284
F0.3
aF7.0
aI1
aI0
aVhttp://www.beersofeurope.co.uk/media/catalog/product/cache/1/image/9df78eab33525d08d6e5fb8d27136e95/pimages/BrewdogNannyState.jpg
p285
asVWhite Gypsy Russian Impy 
p286
(lp287
F6.8
aF7.0
aI1
aI0
aVhttp://media.istockphoto.com/photos/beer-bottle-picture-id175533358?k=6&m=175533358&s=170667a&w=0&h=de2hI2j7Ie8LiNCvkRlS-wwxhChsggEDoX9SDagZnAY=
p288
asVCorona Light
p289
(lp290
F4.6
aF7.0
aI3
aI0
aVhttp://rsvpmagazine.ie/wp-content/uploads/2013/06/Corona-Light.jpg
p291
asVFounders Centennial IPA Can
p292
(lp293
F5.4
aF36.0
aI3
aI0
aVhttp://res.cloudinary.com/ratebeer/image/upload/w_250,c_limit/beer_3168.jpg
p294
asVPeroni Nastro Azzurro 
p295
(lp296
F3.5
aF13.0
aI3
aI0
aVhttp://res.cloudinary.com/ratebeer/image/upload/w_250,c_limit/beer_3029.jpg
p297
asVLindemans Cuvee Rene Kriek 
p298
(lp299
F5.0
aF3.0
aI11
aI6
aVhttp://res.cloudinary.com/ratebeer/image/upload/w_250,c_limit/beer_72448.jpg
p300
asVSiren Vanilla Weisse 
p301
(lp302
F2.8
aF7.0
aI3
aI3
aVhttp://i.imgur.com/UC3ZFA5.jpg
p303
asVDupont Avec Bons Voeux 
p304
(lp305
F8.7
aF24.0
aI4
aI0
aVhttp://res.cloudinary.com/ratebeer/image/upload/w_250,c_limit/beer_11047.jpg
p306
asVOud Beersel Oude Kriek 
p307
(lp308
F5.8
aF3.0
aI6
aI6
aVhttp://res.cloudinary.com/ratebeer/image/upload/w_250,c_limit/beer_10908.jpg
p309
asVMikkeller Raspberry Quadrupel
p310
(lp311
F12.9
aF7.0
aI10
aI0
aVhttp://res.cloudinary.com/ratebeer/image/upload/w_250,c_limit/beer_317889.jpg
p312
asVAnchor Brekles Brown 
p313
(lp314
F4.3
aF4.0
aI1
aI0
aVhttp://res.cloudinary.com/ratebeer/image/upload/w_250,c_limit/beer_139388.jpg
p315
asVBrooklyn Silver Anniversary Lager
p316
(lp317
F8.8
aF25.0
aI3
aI0
aVhttp://res.cloudinary.com/ratebeer/image/upload/w_250,c_limit/beer_204873.jpg
p318
asVLagunitas Little Sumpin' 
p319
(lp320
F5.6
aF35.0
aI5
aI0
aVhttp://res.cloudinary.com/ratebeer/image/upload/w_250,c_limit/beer_103006.jpg
p321
asVTrouble Brewing Dark Arts Port
p322
(lp323
F3.8
aF24.0
aI35
aI0
aVhttp://res.cloudinary.com/ratebeer/image/upload/w_250,c_limit/beer_140325.jpg
p324
asVRochefort 10
p325
(lp326
F11.3
aF14.0
aI18
aI0
aVhttp://res.cloudinary.com/ratebeer/image/upload/w_250,c_limit/beer_2360.jpg
p327
asVWicklow Wolf Black Perle 
p328
(lp329
F4.7
aF7.0
aI31
aI0
aVhttp://www.fourcorners.ie/perch/resources/products/black-perle-porterpw-2.jpg
p330
asV3 Fonteinen Intense Red 
p331
(lp332
F5.8
aF7.0
aI11
aI0
aVhttp://i.imgur.com/G4xfSU4.jpg
p333
asVMikkeller Black Imperial 
p334
(lp335
F15.1
aF15.0
aI37
aI0
aVhttp://res.cloudinary.com/ratebeer/image/upload/w_250,c_limit/beer_83833.jpg
p336
asVLindemans Blossom Geuze 
p337
(lp338
F4.8
aF3.0
aI6
aI5
aVhttps://www.beergium.com/3454-thickbox_default/lindemans-blossom-gueuze-75cl.jpg
p339
asV3 Fonteinen Oude Kreik 
p340
(lp341
F6.3
aF7.0
aI1
aI0
aVhttp://res.cloudinary.com/ratebeer/image/upload/w_250,c_limit/beer_11175.jpg
p342
asVWEIHENSTEPHANER DUNKEL 
p343
(lp344
F3.9
aF7.0
aI14
aI0
aVhttp://www.beergonzo.co.uk/pictures/1b972403-ad81-4521-875c-f22b5f098063.jpg
p345
asVSierra Nevada Torpedo
p346
(lp347
F7.2
aF68.0
aI4
aI0
aVhttp://res.cloudinary.com/ratebeer/image/upload/w_250,c_limit/beer_59261.jpg
p348
asVFourpure Session IPA
p349
(lp350
F1.3
aF49.0
aI5
aI0
aVhttps://www.beermerchants.com/media/catalog/product/f/o/four_pure_session_ipa.png
p351
asVOdells Runoff Red Ale 
p352
(lp353
F4.4
aF33.0
aI9
aI0
aVhttp://thefullpint.com/wp-content/uploads/2013/12/odell-runoff-red-ipa-bottle.jpg
p354
asVWEIHENSTEPHANER HEFE 
p355
(lp356
F2.2
aF7.0
aI3
aI0
aVhttp://res.cloudinary.com/ratebeer/image/upload/w_250,c_limit/beer_1156.jpg
p357
asVLa Trappe Quadrupel 
p358
(lp359
F10.0
aF7.0
aI19
aI0
aVhttp://res.cloudinary.com/ratebeer/image/upload/w_250,c_limit/beer_4565.jpg
p360
asVSUNBURNT RED ALE 
p361
(lp362
F3.7
aF21.0
aI9
aI0
aVhttp://res.cloudinary.com/ratebeer/image/upload/w_250,c_limit/beer_154054.jpg
p363
asVOdells Friek 
p364
(lp365
F8.4
aF55.0
aI8
aI5
aVhttp://res.cloudinary.com/ratebeer/image/upload/w_250,c_limit/beer_113162.jpg
p366
asVMaisel 
p367
(lp368
F6.9
aF7.0
aI3
aI0
aVhttp://res.cloudinary.com/ratebeer/image/upload/w_250,c_limit/beer_185853.jpg
p369
asVVeltins Pilsner 
p370
(lp371
F3.2
aF16.0
aI2
aI0
aVhttp://res.cloudinary.com/ratebeer/image/upload/w_250,c_limit/beer_4040.jpg
p372
asVSpencer Trappist Ale 
p373
(lp374
F5.2
aF7.0
aI4
aI0
aVhttp://res.cloudinary.com/ratebeer/image/upload/w_250,c_limit/beer_241569.jpg
p375
asVFounders reDANKulous 
p376
(lp377
F9.3
aF31.0
aI14
aI0
aVhttp://media.istockphoto.com/photos/beer-bottle-picture-id175533358?k=6&m=175533358&s=170667a&w=0&h=de2hI2j7Ie8LiNCvkRlS-wwxhChsggEDoX9SDagZnAY=
p378
asVSka Brewing Modus Hoperandi
p379
(lp380
F6.2
aF55.0
aI4
aI0
aVhttp://res.cloudinary.com/ratebeer/image/upload/w_250,c_limit/beer_99487.jpg
p381
asVFourpure Pale Ale Can 
p382
(lp383
F5.0
aF100.0
aI4
aI0
aVhttp://www.pivovarorders.co.uk/user/products/large/fourpure%20american%20pale%20ale%20CAN.jpg
p384
asVWESTMALLE TRIPEL 
p385
(lp386
F8.6
aF12.0
aI3
aI0
aVhttp://res.cloudinary.com/ratebeer/image/upload/w_250,c_limit/beer_2204.jpg
p387
asVBrewDog Kingpin Lager
p388
(lp389
F2.9
aF29.0
aI4
aI0
aVhttp://www.beersofeurope.co.uk/media/catalog/product/cache/1/image/9df78eab33525d08d6e5fb8d27136e95/pimages/BrewdogKingpin.jpg
p390
asVAnchor Old Foghorn 
p391
(lp392
F9.5
aF21.0
aI22
aI0
aVhttp://res.cloudinary.com/ratebeer/image/upload/w_250,c_limit/beer_4728.jpg
p393
asVSchorsch Bock ICE 30 
p394
(lp395
F29.8
aF7.0
aI20
aI0
aVhttp://biershop.bierpost.com/Media/Thumbs/0003/0003527-schorschbock-ice-30-mit-30-033l-300.gif
p396
asVRascal's Yankee White IPA 
p397
(lp398
F4.8
aF39.0
aI1
aI0
aVhttp://www.martinsofflicence.ie/cms/images/260x510_p1455027156120_rascals_yankee_white_ipa.jpg
p399
asVDupont Biere De Miel Bio 
p400
(lp401
F6.7
aF12.0
aI3
aI0
aVhttp://res.cloudinary.com/ratebeer/image/upload/w_250,c_limit/beer_12383.jpg
p402
asVO'HARAS STOUT 
p403
(lp404
F4.1
aF21.0
aI30
aI0
aVhttp://res.cloudinary.com/ratebeer/image/upload/w_250,c_limit/beer_5830.jpg
p405
asVWhite Hag IPA 
p406
(lp407
F7.2
aF43.0
aI3
aI0
aVhttps://cdn.shopify.com/s/files/1/0286/4636/products/white_hag.jpg?v=1422444987
p408
asVSierra Nevada Hop Hunter 355
p409
(lp410
F6.2
aF70.0
aI4
aI0
aVhttp://res.cloudinary.com/ratebeer/image/upload/w_250,c_limit/beer_250957.jpg
p411
asVOBrother The Chancer APA 
p412
(lp413
F5.3
aF38.0
aI4
aI0
aVhttps://www.obrienswine.ie/media/catalog/product/1/5/15B180-O-Brother-Brewing-Chancer-APA-50cl-Bottle.png
p414
asVBrooklyn Lager 
p415
(lp416
F3.1
aF32.0
aI3
aI0
aVhttp://res.cloudinary.com/ratebeer/image/upload/w_250,c_limit/beer_528.jpg
p417
asVStone Barrel Brewing Boom IPA
p418
(lp419
F4.8
aF68.0
aI4
aI0
aVhttp://www.martinsofflicence.ie/cms/images/260x510_p1391086297922_stone-barrel-boom-session-ipa-2.jpg
p420
asVSierra Nevada Nooner Can
p421
(lp422
F2.0
aF40.0
aI3
aI0
aVhttp://res.cloudinary.com/ratebeer/image/upload/w_250,c_limit/beer_307541.jpg
p423
asVCOPPER COAST RED ALE 
p424
(lp425
F4.1
aF28.0
aI7
aI0
aVhttp://dungarvanbrewingcompany.com/wp-content/uploads/2012/10/copper_big1.png
p426
asVBudvar
p427
(lp428
F5.0
aF10.0
aI2
aI0
aVhttp://res.cloudinary.com/ratebeer/image/upload/w_250,c_limit/beer_1316.jpg
p429
asVPuck Pilsner 
p430
(lp431
F4.4
aF8.0
aI3
aI0
aVhttps://www.obrienswine.ie/media/catalog/product/1/5/15B083-Jack-Cody_s-Puck-Pilsner-50cl-Bottle.png
p432
asVOBrother The Fixer Red Ale
p433
(lp434
F5.4
aF36.0
aI7
aI0
aVhttp://www.martinsofflicence.ie/cms/images/260x510_p1472032953577_o-brother-brewing-fixer-amber-ale.jpg
p435
asVFourpure Skyliner Wheat Summer
p436
(lp437
F3.1
aF23.0
aI4
aI0
aVhttps://assets.londonist.com/uploads/2016/05/i730/four.jpg
p438
asVLagunitas Censored 
p439
(lp440
F4.9
aF5.0
aI5
aI0
aVhttp://res.cloudinary.com/ratebeer/image/upload/w_250,c_limit/beer_8829.jpg
p441
asVCOOPERS SPK. ALE 
p442
(lp443
F5.8
aF25.0
aI4
aI0
aVhttp://mrliquor.com.au/ma4/images/stories/virtuemart/product/COOPERS_SPK_ALE__51103402ae61d.jpg
p444
asVhenstephaner Original Helle
p445
(lp446
F1.5
aF9.0
aI4
aI0
aVhttp://cdn6.bigcommerce.com/s-fuwlhuh/products/357/images/619/Weihenstephaner_Original_Helles_new__37535.1437385886.490.588.png?c=2
p447
asVOud Beersel Schaarbeekse Oude
p448
(lp449
F6.8
aF1.0
aI3
aI7
aVhttp://res.cloudinary.com/ratebeer/image/upload/w_250,c_limit/beer_409938.jpg
p450
asVFounders Rubaeus Can 
p451
(lp452
F3.7
aF32.0
aI3
aI0
aVhttp://res.cloudinary.com/ratebeer/image/upload/w_250,c_limit/beer_46846.jpg
p453
asVChimay Doree Goud 
p454
(lp455
F3.3
aF12.0
aI3
aI0
aVhttp://res.cloudinary.com/ratebeer/image/upload/w_250,c_limit/beer_14228.jpg
p456
asVCHIMAY RED
p457
(lp458
F6.1
aF7.0
aI11
aI0
aVhttp://res.cloudinary.com/ratebeer/image/upload/w_250,c_limit/beer_51.jpg
p459
asVAnchor Christmas 2015  
p460
(lp461
F5.3
aF36.0
aI24
aI0
aVhttps://2fdltvvn8wp2rn64ywgk8o17-wpengine.netdna-ssl.com/wp-content/uploads/2015/01/anchor-christmas-ale-2014.png
p462
asVSt. Bernardus Abt 12 
p463
(lp464
F10.4
aF16.0
aI18
aI0
aVhttp://res.cloudinary.com/ratebeer/image/upload/w_250,c_limit/beer_2530.jpg
p465
asVWicklow Wolf American Amber
p466
(lp467
F4.5
aF29.0
aI7
aI0
aVhttp://www.fourcorners.ie/perch/resources/products/american-amberpw-2.jpg
p468
asVBrooklyn Local 1
p469
(lp470
F8.8
aF35.0
aI4
aI0
aVhttp://www.omega-level.net/wp-content/uploads/2010/02/Brooklyn-Local-1.jpg
p471
asVLagunitas Wilco Tango Foxtrot
p472
(lp473
F6.9
aF42.0
aI3
aI0
aVhttp://res.cloudinary.com/ratebeer/image/upload/w_250,c_limit/beer_117140.jpg
p474
asVFounders Porter 
p475
(lp476
F5.5
aF22.0
aI34
aI0
aVhttp://res.cloudinary.com/ratebeer/image/upload/w_250,c_limit/beer_3173.jpg
p477
asVBeavertown Neck Oil
p478
(lp479
F4.3
aF89.0
aI4
aI0
aVhttp://res.cloudinary.com/ratebeer/image/upload/w_250,c_limit/beer_230018.jpg
p480
asVFounders KBS 2016 
p481
(lp482
F13.2
aF21.0
aI31
aI0
aVhttp://res.cloudinary.com/ratebeer/image/upload/w_250,c_limit/beer_40544.jpg
p483
asVSka Brewing Rudie Session IPA
p484
(lp485
F1.5
aF41.0
aI5
aI0
aVhttp://res.cloudinary.com/ratebeer/image/upload/w_250,c_limit/beer_280927.jpg
p486
asVFounders Dirty Bastard 
p487
(lp488
F8.7
aF45.0
aI6
aI0
aVhttp://res.cloudinary.com/ratebeer/image/upload/w_250,c_limit/beer_11498.jpg
p489
asVOud Beersel Green Walnut 
p490
(lp491
F5.3
aF6.0
aI4
aI6
aVhttp://res.cloudinary.com/ratebeer/image/upload/w_250,c_limit/beer_348368.jpg
p492
asVBeavertown 8 Ball
p493
(lp494
F6.0
aF78.0
aI6
aI0
aVhttp://www.cavedirect.com/img/db/product-large/beavertown-8-ball-cave-direct.jpg
p495
asVBrooklyn K is for Kriek
p496
(lp497
F9.8
aF7.0
aI6
aI3
aVhttp://www.fourcorners.ie/perch/resources/other/k-is-for-kriek-hr.png
p498
asVBrooklyn Lager
p499
(lp500
F5.2
aF33.0
aI4
aI0
aVhttp://res.cloudinary.com/ratebeer/image/upload/w_120,c_limit/beer_528.jpg
p501
asVBarefoot Bohemian Lager
p502
(lp503
F3.5
aF15.0
aI2
aI0
aVhttp://www.beersofeurope.co.uk/media/catalog/product/cache/1/image/9df78eab33525d08d6e5fb8d27136e95/pimages/EightdegreesBarefootBohemian.jpg
p504
asVLindemans Faro 
p505
(lp506
F3.9
aF7.0
aI14
aI4
aVhttp://res.cloudinary.com/ratebeer/image/upload/w_250,c_limit/beer_6376.jpg
p507
asVO'Haras Notorious Red IPA
p508
(lp509
F4.5
aF35.0
aI6
aI0
aVhttps://www.obrienswine.ie/media/catalog/product/1/6/16B030-O_Haras-Notorious-Red-IPA-50cl-Bottle.png
p510
asVBlacks Kinsale 'KPA' Can 
p511
(lp512
F4.0
aF47.0
aI3
aI0
aVhttp://res.cloudinary.com/ratebeer/image/upload/w_250,c_limit/beer_217458.jpg
p513
asVOdells Drumroll APA
p514
(lp515
F3.5
aF49.0
aI4
aI0
aVhttp://i.imgur.com/hFPHPnH.jpg
p516
asVO'Hara's Imperial Stout 
p517
(lp518
F9.8
aF15.0
aI34
aI0
aVhttp://www.martinsofflicence.ie/cms/images/260x510_p1459254599946_oharas_imperial_stout_20th_anniversary.jpg
p519
asVBeavertown Smog Rocket Can 330
p520
(lp521
F3.8
aF68.0
aI23
aI0
aVhttps://www.beermerchants.com/media/catalog/product/cache/1/image/x400/17f82f742ffe127f42dca9de82fb58b1/b/e/beavertown_smog_rocket_2.png
p522
asVBrewDog Restorative Can 
p523
(lp524
F8.5
aF100.0
aI5
aI0
aVhttp://cdn2.bigcommerce.com/server2400/0294a/products/5215/images/5970/Brewdog_Restorative_Beverage__94811.1473857983.1280.1280.jpg?c=2
p525
asVLagunitas Brown Shugga 
p526
(lp527
F9.6
aF43.0
aI16
aI0
aVhttp://res.cloudinary.com/ratebeer/image/upload/w_250,c_limit/beer_8732.jpg
p528
asVPORTERHOUSE RED 
p529
(lp530
F3.3
aF20.0
aI7
aI0
aVhttp://res.cloudinary.com/ratebeer/image/upload/w_250,c_limit/beer_11376.jpg
p531
asVWhite Gypsy Doppelbock 
p532
(lp533
F7.4
aF7.0
aI16
aI0
aVhttp://www.martinsofflicence.ie/cms/images/260x510_p1371558542122_23463666.jpg
p534
asVOscar Blues Dales Pale Ale
p535
(lp536
F4.7
aF37.0
aI3
aI0
aVhttp://res.cloudinary.com/ratebeer/image/upload/w_250,c_limit/beer_11576.jpg
p537
asVFounders Mosaic Promise 
p538
(lp539
F4.0
aF52.034
aI4
aI0
aVhttp://res.cloudinary.com/ratebeer/image/upload/w_250,c_limit/beer_226680.jpg
p540
asVFounders Sumatra Mountain Brow
p541
(lp542
F8.7
aF7.0
aI8
aI0
aVhttp://res.cloudinary.com/ratebeer/image/upload/w_250,c_limit/beer_135773.jpg
p543
asVSpaten Lager
p544
(lp545
F5.2
aF14.0
aI3
aI0
aVhttp://lakebeverage.com/wp-content/uploads/2015/03/Spaten-Premium-Lager.png
p546
asVCOOPERS PALE ALE 
p547
(lp548
F3.2
aF34.0
aI5
aI0
aVhttp://res.cloudinary.com/ratebeer/image/upload/w_250,c_limit/beer_4060.jpg
p549
asVBrewDog Bourbon Baby 
p550
(lp551
F5.0
aF7.0
aI11
aI0
aVhttp://res.cloudinary.com/ratebeer/image/upload/w_250,c_limit/beer_252097.jpg
p552
asVBrooklyn Intensified Coffee Po
p553
(lp554
F11.8
aF32.0
aI24
aI0
aVhttps://decrescente.net/images/suppliers/brooklyn-brewery/brooklyn-intensified-coffee-porter/intensified-coffee-porter-bottle-lg.png
p555
asVLagunitas Aunt Sally 
p556
(lp557
F3.4
aF40.0
aI3
aI4
aVhttps://lagunitas.com/u/img/beer-images/aunt-sally/Aunt-Sally-Lagunitas-12oz-Bottle.png
p558
asVBrewDog Ship Wreck 
p559
(lp560
F14.5
aF24.0
aI20
aI0
aVhttp://www.beersofeurope.co.uk/media/catalog/product/cache/1/image/9df78eab33525d08d6e5fb8d27136e95/pimages/BrewdogShipWreck.jpg
p561
asVOdells St. Lupulin
p562
(lp563
F3.9
aF48.0
aI3
aI0
aVhttp://www.martinsofflicence.ie/cms/images/260x510_p1472133158777_st_lupulin_extra_pale_ale_can.jpg
p564
asVBrooklyn East India Pale 
p565
(lp566
F5.2
aF35.0
aI4
aI0
aVhttp://res.cloudinary.com/ratebeer/image/upload/w_250,c_limit/beer_530.jpg
p567
asVBeavertown Black Betty C 
p568
(lp569
F6.2
aF34.0
aI1
aI0
aVhttp://res.cloudinary.com/ratebeer/image/upload/w_250,c_limit/beer_191161.jpg
p570
asVTRIPEL KARMELIET 
p571
(lp572
F7.0
aF7.0
aI3
aI0
aVhttp://res.cloudinary.com/ratebeer/image/upload/w_250,c_limit/beer_5368.jpg
p573
asVStone Arrogant Bastard
p574
(lp575
F7.2
aF100.0
aI4
aI0
aVhttp://stonesalesmaterials.com/wp-content/uploads/2014/09/2014_BourbonABA_bottle_Web.png
p576
asVSierra Nevada Pale Ale Can 355
p577
(lp578
F2.1
aF42.0
aI4
aI0
aVhttp://res.cloudinary.com/ratebeer/image/upload/w_250,c_limit/beer_365.jpg
p579
asVSierra Nevada Porter 
p580
(lp581
F4.4
aF34.0
aI34
aI0
aVhttp://res.cloudinary.com/ratebeer/image/upload/w_250,c_limit/beer_366.jpg
p582
asVBlacks Kinsale Black IPA 
p583
(lp584
F4.9
aF45.0
aI28
aI0
aVhttp://res.cloudinary.com/ratebeer/image/upload/w_250,c_limit/beer_236468.jpg
p585
asVBrooklyn Cuvee Noir 
p586
(lp587
F10.9
aF26.0
aI26
aI0
aVhttp://brooklynbrewery.com/system/beers/44_shelf_CuveeNoire-750ml-LR_original.png?1442434954
p588
asVBLACK ROCK STOUT 
p589
(lp590
F3.6
aF24.0
aI33
aI0
aVhttp://res.cloudinary.com/ratebeer/image/upload/w_250,c_limit/beer_128477.jpg
p591
asVBrooklyn Wild Streak 
p592
(lp593
F9.4
aF36.0
aI8
aI3
aVhttp://res.cloudinary.com/ratebeer/image/upload/w_250,c_limit/beer_250350.jpg
p594
asVOdells The Meddler 
p595
(lp596
F7.8
aF7.0
aI1
aI6
aVhttp://res.cloudinary.com/ratebeer/image/upload/w_250,c_limit/beer_185267.jpg
p597
asVBrooklyn Black Chocolate 
p598
(lp599
F9.1
aF15.0
aI24
aI0
aVhttp://res.cloudinary.com/ratebeer/image/upload/w_250,c_limit/beer_531.jpg
p600
asVSiren Pompelmocello 
p601
(lp602
F3.4
aF22.0
aI4
aI3
aVhttps://www.beermerchants.com/media/catalog/product/s/i/siren_pompelmocello.png
p603
asVBRAINBLASTA 
p604
(lp605
F7.0
aF10.0
aI11
aI0
aVhttp://cdn.shopify.com/s/files/1/0286/4636/products/PorterhouseBrainblasta_grande.jpg?v=1403865154
p606
asVAnchor Saison Spring Ale 
p607
(lp608
F6.0
aF7.0
aI1
aI0
aVhttp://www.beersofeurope.co.uk/media/catalog/product/cache/1/image/9df78eab33525d08d6e5fb8d27136e95/pimages/AnchorSaisonSpringAle.jpg
p609
asVSierra Nevada Bigfoot 2015 350
p610
(lp611
F10.0
aF20.0
aI18
aI0
aVhttp://res.cloudinary.com/ratebeer/image/upload/w_250,c_limit/beer_371.jpg
p612
asVAecht Schlenkerla Weizen 
p613
(lp614
F3.6
aF7.0
aI5
aI0
aVhttp://res.cloudinary.com/ratebeer/image/upload/w_250,c_limit/beer_8565.jpg
p615
asVWhiplash Rollover Session IPA
p616
(lp617
F3.6
aF47.0
aI3
aI0
aVhttp://res.cloudinary.com/ratebeer/image/upload/w_250,c_limit/beer_412929.jpg
p618
asVBrooklyn Improved Old Fashioned
p619
(lp620
F13.3
aF14.0
aI17
aI0
aVhttp://i.imgur.com/m5H8YVd.jpg
p621
asVFRANZISKANER HEFE 
p622
(lp623
F2.6
aF7.0
aI5
aI0
aVhttp://res.cloudinary.com/ratebeer/image/upload/w_250,c_limit/beer_1088.jpg
p624
asVSchneider Tap X Maries Rendezv
p625
(lp626
F8.4
aF8.0
aI3
aI0
aVhttp://res.cloudinary.com/ratebeer/image/upload/w_250,c_limit/beer_398355.jpg
p627
asVYeastie Boys Digital IPA 
p628
(lp629
F5.5
aF55.0
aI4
aI0
aVhttp://www.nectar.net/productimages/YEA003%20Yeastie%20Boys%20Digital%20IPA.jpg
p630
asVLeffe Blonde 
p631
(lp632
F5.6
aF16.0
aI3
aI0
aVhttp://res.cloudinary.com/ratebeer/image/upload/w_250,c_limit/beer_2514.jpg
p633
asVFounders Rubaeus 
p634
(lp635
F3.7
aF26.0
aI6
aI0
aVhttp://res.cloudinary.com/ratebeer/image/upload/w_250,c_limit/beer_46846.jpg
p636
asVOscar Blues Mama's Little Yell
p637
(lp638
F2.7
aF38.0
aI3
aI0
aVhttp://1.bp.blogspot.com/-IVe8S-HOOjg/VS24Xe9LbQI/AAAAAAAAiPo/XYp4d-aOvTo/s1600/mama's%2Blittle%2Byella%2Bpils%2Boskar%2Bblues.png
p639
asVLagunitas Stoopid Wit 
p640
(lp641
F4.7
aF42.0
aI2
aI0
aVhttp://res.cloudinary.com/ratebeer/image/upload/w_250,c_limit/beer_435254.jpg
p642
asVBeoir Chorca Cul Dorcha
p643
(lp644
F4.8
aF15.0
aI40
aI0
aVhttp://www.martinsofflicence.ie/cms/images/260x510_p1389718576762_west-kerry-cul-dorcha.jpg
p645
asVBirrifico Verdi Black Jack
p646
(lp647
F9.8
aF15.0
aI16
aI0
aVhttp://res.cloudinary.com/ratebeer/image/upload/w_120,c_limit/beer_124259.jpg
p648
asVBrewDog Dead Pony Club
p649
(lp650
F3.8
aF45.0
aI3
aI0
aVhttp://res.cloudinary.com/ratebeer/image/upload/w_250,c_limit/beer_172207.jpg
p651
asVLa Chouffe Houblon Triple IPA
p652
(lp653
F7.6
aF37.0
aI5
aI0
aVhttp://res.cloudinary.com/ratebeer/image/upload/w_250,c_limit/beer_56757.jpg
p654
asVO'Haras Hop Adventure 
p655
(lp656
F5.0
aF68.0
aI4
aI0
aVhttp://www.martinsofflicence.ie/cms/images/260x510_p1437398797618_o%E2%80%99hara%E2%80%99s-hop-adventure-sorachi-ace.jpg
p657
asVFounders Breakfast Stout 
p658
(lp659
F8.0
aF7.0
aI28
aI0
aVhttp://res.cloudinary.com/ratebeer/image/upload/w_250,c_limit/beer_14956.jpg
p660
asVBrewDog Jet Black Heart 
p661
(lp662
F4.1
aF7.0
aI35
aI0
aVhttp://res.cloudinary.com/ratebeer/image/upload/w_250,c_limit/beer_395517.jpg
p663
asVOBrother The Sinner IPA 
p664
(lp665
F6.1
aF66.0
aI5
aI0
aVhttps://cdn.shopify.com/s/files/1/0286/4636/products/15B178-O-Brother-Brewing-Sinner-IPA-50cl-Bottle.png?v=1480078363
p666
asVWESTMALLE DUBBEL 
p667
(lp668
F6.4
aF15.0
aI16
aI0
aVhttp://res.cloudinary.com/ratebeer/image/upload/w_250,c_limit/beer_2205.jpg
p669
asVDeus 
p670
(lp671
F11.5
aF30.0
aI6
aI0
aVhttp://res.cloudinary.com/ratebeer/image/upload/w_250,c_limit/beer_18912.jpg
p672
asVStormy Port Irish Porter 
p673
(lp674
F4.4
aF7.0
aI32
aI0
aVhttp://res.cloudinary.com/ratebeer/image/upload/w_250,c_limit/beer_164660.jpg
p675
asVMetalman Equinox 
p676
(lp677
F3.7
aF38.0
aI8
aI0
aVhttp://www.martinsofflicence.ie/cms/images/260x510_p1440510769881_metal-man-2.jpg
p678
asVTrouble Brewing Deception
p679
(lp680
F2.2
aF35.0
aI6
aI0
aVhttp://res.cloudinary.com/ratebeer/image/upload/w_250,c_limit/beer_247307.jpg
p681
asVMetalman Pale Ale
p682
(lp683
F2.8
aF48.0
aI4
aI0
aVhttp://www.fourcorners.ie/perch/resources/other/metalman-pale-ale.png
p684
asVRanke Hop Harvest 2015
p685
(lp686
F5.8
aF35.0
aI4
aI0
aVhttp://res.cloudinary.com/ratebeer/image/upload/w_250,c_limit/beer_189698.jpg
p687
asVBrewDog Sink The Bismark 
p688
(lp689
F43.1
aF29.0
aI7
aI0
aVhttp://beerstore.com.au/wp-content/uploads/2015/10/brew-dog-sink-bismark-beer-online-1369618023.jpg
p690
asVAnchor Zymaster No. 6 
p691
(lp692
F5.8
aF20.0
aI5
aI0
aVhttps://s-media-cache-ak0.pinimg.com/236x/72/4c/6a/724c6a75be9eff71bca6ba68cb854eee.jpg
p693
asVOscar Blues Pinner Passion Fruit
p694
(lp695
F2.7
aF46.0
aI4
aI0
aVhttp://www.oakbarrel.com.au/images/products/lg_3447.jpg
p696
asVSam Adams Rebel IPA 
p697
(lp698
F5.2
aF40.0
aI3
aI0
aVhttp://res.cloudinary.com/ratebeer/image/upload/w_250,c_limit/beer_222791.jpg
p699
asVPORTERHOUSE PLAIN 
p700
(lp701
F3.1
aF7.0
aI1
aI0
aVhttp://www.theporterhouse.ie/images/beers/bottle-plain.png
p702
asVLagunitas Lucky 13 
p703
(lp704
F8.6
aF44.0
aI4
aI0
aVhttps://lagunitas.com/u/img/beer-images/lucky13/Lucky-13-Lagunitas-12-oz-Bottle.png
p705
asVStone IPA Can 
p706
(lp707
F4.9
aF71.0
aI3
aI0
aVhttp://res.cloudinary.com/ratebeer/image/upload/w_250,c_limit/beer_422.jpg
p708
asVRodenbach Grand Cru 
p709
(lp710
F5.0
aF7.0
aI19
aI8
aVhttp://res.cloudinary.com/ratebeer/image/upload/w_250,c_limit/beer_1194.jpg
p711
asVRascal's Big Hop Red Can 
p712
(lp713
F5.0
aF31.0
aI7
aI0
aVhttp://www.martinsofflicence.ie/cms/images/260x510_p1455027698855_rascals_big_hop_red.jpg
p714
asVThornbridge Eldon 
p715
(lp716
F7.1
aF7.0
aI32
aI0
aVhttp://www.pivovarorders.co.uk/user/products/large/ELDON%20BOTTLE.png
p717
asVWhite Hag Wit 
p718
(lp719
F3.9
aF32.0
aI7
aI0
aVhttp://www.beersofeurope.co.uk/media/catalog/product/cache/1/image/9df78eab33525d08d6e5fb8d27136e95/pimages/TheWhiteHagRedDoe.jpg
p720
asVAnchor Liberty Ale 
p721
(lp722
F4.5
aF43.0
aI4
aI0
aVhttp://res.cloudinary.com/ratebeer/image/upload/w_250,c_limit/beer_47.jpg
p723
asVTrouble Brewing Sabotage IPA
p724
(lp725
F5.1
aF36.0
aI5
aI0
aVhttp://www.martinsofflicence.ie/cms/images/708x708_p1374748070442_trouble_brewing_sabotage_india_pale_ale.jpg
p726
asVOdell's Lugene Choco Milk Stou
p727
(lp728
F7.0
aF14.0
aI28
aI0
aVhttp://res.cloudinary.com/ratebeer/image/upload/w_250,c_limit/beer_194215.jpg
p729
asVBrooklyn Sorachi  Ace
p730
(lp731
F5.6
aF41.0
aI5
aI0
aVhttp://www.beersofeurope.co.uk/media/catalog/product/cache/1/image/9df78eab33525d08d6e5fb8d27136e95/pimages/BrooklynSorachiAce.jpg
p732
asVLagunitas Pale Ale 
p733
(lp734
F3.5
aF48.0
aI5
aI0
aVhttp://res.cloudinary.com/ratebeer/image/upload/w_250,c_limit/beer_86876.jpg
p735
asVSierra Nevada Torpedo 
p736
(lp737
F6.7
aF62.0
aI4
aI0
aVhttp://res.cloudinary.com/ratebeer/image/upload/w_250,c_limit/beer_59261.jpg
p738
asVAnchor Steam Beer 
p739
(lp740
F1.9
aF29.0
aI1
aI0
aVhttp://res.cloudinary.com/ratebeer/image/upload/w_250,c_limit/beer_46.jpg
p741
asVThornbridge Jaipur 
p742
(lp743
F3.2
aF49.0
aI4
aI0
aVhttp://res.cloudinary.com/ratebeer/image/upload/w_250,c_limit/beer_48795.jpg
p744
asVO'Hara's Leann Follain 
p745
(lp746
F8.7
aF7.0
aI23
aI0
aVhttp://www.beersofeurope.co.uk/media/catalog/product/cache/1/image/9df78eab33525d08d6e5fb8d27136e95/pimages/OharasLeannFollain.jpg
p747
asVOud Beersel Oude Geuze 
p748
(lp749
F5.0
aF31.0
aI3
aI6
aVhttp://res.cloudinary.com/ratebeer/image/upload/w_250,c_limit/beer_10907.jpg
p750
asVBrewDog Vagabond P A 
p751
(lp752
F1.7
aF38.0
aI4
aI0
aVhttp://res.cloudinary.com/ratebeer/image/upload/w_250,c_limit/beer_304469.jpg
p753
asVLagunitas The Down Low 
p754
(lp755
F3.3
aF52.0
aI5
aI0
aVhttps://lagunitas.com/u/img/beer-images/downlow/DownLow_Web.png
p756
asVBeavertown Gamma Ray Can
p757
(lp758
F2.4
aF51.0
aI5
aI0
aVhttp://res.cloudinary.com/ratebeer/image/upload/w_250,c_limit/beer_189363.jpg
p759
asVOscar Blues G'Knight 
p760
(lp761
F6.6
aF7.0
aI9
aI0
aVhttp://extras.mnginteractive.com/live/media/site21/2011/0114/20110114__15dcaoskw~2.jpg
p762
asVO'HARAS LEANN FOLLAIN 
p763
(lp764
F5.2
aF7.0
aI24
aI0
aVhttp://res.cloudinary.com/ratebeer/image/upload/w_250,c_limit/beer_100788.jpg
p765
asVWicklow Wolf Kentucky
p766
(lp767
F4.8
aF7.0
aI4
aI1
aVhttps://www.obrienswine.ie/media/catalog/product/1/4/14B123-Wicklow-Wolf-IPA-50cl-Btl.png
p768
asVStone Brewing Cali
p769
(lp770
F6.1
aF70.0
aI4
aI0
aVhttp://res.cloudinary.com/ratebeer/image/upload/w_250,c_limit/beer_87480.jpg
p771
asV3 Fonteinen Oude Geuze 
p772
(lp773
F6.0
aF7.0
aI3
aI6
aVhttp://res.cloudinary.com/ratebeer/image/upload/w_250,c_limit/beer_11168.jpg
p774
asVSka Brewing Modus Mandarina 35
p775
(lp776
F6.2
aF54.0
aI3
aI0
aVhttp://res.cloudinary.com/ratebeer/image/upload/w_250,c_limit/beer_260630.jpg
p777
asVO'HARAS IRISH PALE ALE 
p778
(lp779
F3.9
aF41.0
aI3
aI0
aVhttp://res.cloudinary.com/ratebeer/image/upload/w_250,c_limit/beer_126380.jpg
p780
asVAnderson V Brother David 
p781
(lp782
F10.4
aF7.0
aI1
aI0
aVhttp://res.cloudinary.com/ratebeer/image/upload/w_250,c_limit/beer_34081.jpg
p783
as.