(dp0
V3 Fonteinen Oude Geuze
p1
(lp2
F6.0
aF7.0
aI1
aI0
aVhttp://res.cloudinary.com/ratebeer/image/upload/w_250,c_limit/beer_311168.jpg
p3
asVKNOCKMEALDOWN PORTER 
p4
(lp5
F4.8
aF7.0
aI32
aI0
aVhttp://res.cloudinary.com/ratebeer/image/upload/w_250,c_limit/beer_160562.jpg
p6
asVMikkeller Black Imperial 
p7
(lp8
F15.1
aF100.0
aI1
aI0
aVhttp://res.cloudinary.com/ratebeer/image/upload/w_250,c_limit/beer_83833.jpg
p9
asVLa Trappe Tripel 
p10
(lp11
F8.0
aF7.0
aI37
aI0
aVhttp://res.cloudinary.com/ratebeer/image/upload/w_250,c_limit/beer_4564.jpg
p12
asVBoon Oude Geuze Black Label
p13
(lp14
F6.0
aF7.0
aI37
aI6
aVhttp://res.cloudinary.com/ratebeer/image/upload/w_250,c_limit/beer_367485.jpg
p15
asVBlacks Kinsale Equinox
p16
(lp17
F5.5
aF100.0
aI1
aI0
aVhttps://www.irelandcraftbeers.com/uploads/images/products/thumb_blacks-of-kinsale-rocket-ship-ipa_20151118203701.png
p18
asVO'HARAS IRISH RED 
p19
(lp20
F2.9
aF1.0
aI37
aI0
aVhttp://res.cloudinary.com/ratebeer/image/upload/w_250,c_limit/beer_44140.jpg
p21
asVLittle Creatures Pale Ale 330M
p22
(lp23
F3.1
aF40.0
aI1
aI0
aVhttp://res.cloudinary.com/ratebeer/image/upload/w_250,c_limit/beer_7658.jpg
p24
asVAnchor Christmas 2015 
p25
(lp26
F5.3
aF7.0
aI1
aI0
aVhttp://res.cloudinary.com/ratebeer/image/upload/w_250,c_limit/beer_200552930.jpg
p27
asVSiren Maiden 
p28
(lp29
F10.8
aF7.0
aI1
aI0
aVhttp://media.alesbymail.co.uk/catalog/product/cache/1/image/9df78eab33525d08d6e5fb8d27136e95/s/i/siren---maiden-2014.jpg
p30
asVBrewDog Elvis Juice 
p31
(lp32
F6.3
aF7.0
aI1
aI0
aVhttps://img.saveur-biere.com/img/p/9412-22248-v4_product_img.jpg
p33
asVOud Beersel Framboise 
p34
(lp35
F3.6
aF7.0
aI1
aI3
aVhttp://res.cloudinary.com/ratebeer/image/upload/w_250,c_limit/beer_49975.jpg
p36
asVPorterhouse Celebration Stout
p37
(lp38
F6.8
aF7.0
aI1
aI0
aVhttp://res.cloudinary.com/ratebeer/image/upload/w_250,c_limit/beer_145625.jpg
p39
asVDupont Biere De Miel Bio 
p40
(lp41
F6.7
aF0.0
aI1
aI0
aVhttp://res.cloudinary.com/ratebeer/image/upload/w_250,c_limit/beer_12383.jpg
p42
asVOdells Fernet Aged Porter
p43
(lp44
F9.4
aF7.0
aI1
aI0
aVhttp://www.beersofeurope.co.uk/media/catalog/product/cache/1/image/9df78eab33525d08d6e5fb8d27136e95/pimages/OdellFernetAgedPorter.jpg
p45
asVBrooklyn Blast Ale 
p46
(lp47
F7.7
aF38.0
aI1
aI0
aVhttp://res.cloudinary.com/ratebeer/image/upload/w_250,c_limit/beer_51334.jpg
p48
asVSamuel Adams Boston Lager
p49
(lp50
F2.6
aF31.0
aI1
aI0
aVhttp://res.cloudinary.com/ratebeer/image/upload/w_250,c_limit/beer_158.jpg
p51
asVBzat Kriekenlambiek Oud Beerse
p52
(lp53
F8.0
aF100.0
aI1
aI0
aVhttp://res.cloudinary.com/ratebeer/image/upload/w_250,c_limit/beer_184275.jpg
p54
asVStone Brewing Ruination IPA Ca
p55
(lp56
F7.1
aF47.0
aI1
aI0
aVhttp://res.cloudinary.com/ratebeer/image/upload/w_250,c_limit/beer_14709.jpg
p57
asVMOOSEHEAD 
p58
(lp59
F5.0
aF100.0
aI1
aI0
aVhttp://www.moosehead.de/files/photos/moosehead-de-goodyfood-klaus-kunze-moosehead-lager-large.png
p60
asVStone Brewing Go To IPA Can 33
p61
(lp62
F3.1
aF68.0
aI1
aI0
aVhttp://res.cloudinary.com/ratebeer/image/upload/w_250,c_limit/beer_253833.jpg
p63
asVSierra Nevada Hoptimum 
p64
(lp65
F10.2
aF39.0
aI1
aI0
aVhttp://res.cloudinary.com/ratebeer/image/upload/w_250,c_limit/beer_117825.jpg
p66
asVWicklow Wolf IPA 
p67
(lp68
F6.4
aF42.0
aI1
aI0
aVhttp://res.cloudinary.com/ratebeer/image/upload/w_250,c_limit/beer_303283.jpg
p69
asVCURIM 
p70
(lp71
F2.7
aF30.0
aI1
aI0
aVhttp://res.cloudinary.com/ratebeer/image/upload/w_250,c_limit/beer_4941.jpg
p72
asVCamden Town IHL Barrel Aged 66
p73
(lp74
F7.3
aF28.0
aI1
aI0
aVhttp://res.cloudinary.com/ratebeer/image/upload/w_250,c_limit/beer_316205.jpg
p75
asVBrooklyn Improved Old Fashione
p76
(lp77
F13.3
aF7.0
aI1
aI0
aVhttp://res.cloudinary.com/ratebeer/image/upload/w_250,c_limit/beer_398364.jpg
p78
asV3 Fonteinen Oude Geuze 
p79
(lp80
F6.0
aF7.0
aI1
aI0
aVhttp://res.cloudinary.com/ratebeer/image/upload/w_250,c_limit/beer_11168.jpg
p81
asVSt. Bernardus Tripel 
p82
(lp83
F6.7
aF4.0
aI1
aI0
aVhttp://res.cloudinary.com/ratebeer/image/upload/w_250,c_limit/beer_2528.jpg
p84
asVChapeau Cuvee Oude Geuze 
p85
(lp86
F3.5
aF6.0
aI1
aI7
aVhttp://res.cloudinary.com/ratebeer/image/upload/w_250,c_limit/beer_6241.jpg
p87
asVO'Hara's Double IPA 
p88
(lp89
F5.6
aF31.0
aI1
aI0
aVhttp://res.cloudinary.com/ratebeer/image/upload/w_250,c_limit/beer_204890.jpg
p90
asVLagunitas Equinox 
p91
(lp92
F7.5
aF35.0
aI1
aI0
aVhttps://s-media-cache-ak0.pinimg.com/originals/14/fb/bd/14fbbd3dca6239a9b85ad1b6aaef6977.png
p93
asVLa Trappe Blonde 
p94
(lp95
F5.8
aF7.0
aI1
aI0
aVhttp://res.cloudinary.com/ratebeer/image/upload/w_250,c_limit/beer_10380.jpg
p96
asVBoon Framboise 
p97
(lp98
F5.0
aF7.0
aI1
aI3
aVhttp://res.cloudinary.com/ratebeer/image/upload/w_250,c_limit/beer_4430.jpg
p99
asVBrewdog Hardcore IPA
p100
(lp101
F9.0
aF7.0
aI1
aI0
aVhttp://res.cloudinary.com/ratebeer/image/upload/w_250,c_limit/beer_118721.jpg
p102
asVBzat Lambiek Oud Beersel 
p103
(lp104
F6.8
aF29.0
aI1
aI7
aVhttp://res.cloudinary.com/ratebeer/image/upload/w_250,c_limit/beer_23561.jpg
p105
asVSierra Nevada Barrel Aged Bigf
p106
(lp107
F13.1
aF7.0
aI1
aI0
aVhttp://res.cloudinary.com/ratebeer/image/upload/w_250,c_limit/beer_65123.jpg
p108
asVBrooklyn K is for Kriek
p109
(lp110
F9.8
aF7.0
aI1
aI3
aVhttp://www.fourcorners.ie/perch/resources/other/k-is-for-kriek-hr.png
p111
asVLeft Hand Wake Up Dead 
p112
(lp113
F9.5
aF7.0
aI1
aI0
aVhttp://lefthandbrewing.com/wp/wp-content/uploads/2013/06/wakeupdead1.png
p114
asVSiren White Tips 
p115
(lp116
F2.3
aF49.0
aI1
aI0
aVhttps://www.eebria.com/media/products/524/20150430145251082/450x450.jpg
p117
asVFourpure Oatmeal Stout
p118
(lp119
F4.9
aF7.0
aI1
aI0
aVhttps://www.beermerchants.com/media/catalog/product/f/o/four_pure_oatmeal_stout.png
p120
asVBrewDog JackHammer Can 
p121
(lp122
F6.3
aF57.0
aI1
aI0
aVhttp://res.cloudinary.com/ratebeer/image/upload/w_250,c_limit/beer_178585.jpg
p123
asVFounders Devil Dancer 
p124
(lp125
F11.6
aF32.0
aI1
aI0
aVhttp://res.cloudinary.com/ratebeer/image/upload/w_250,c_limit/beer_34518.jpg
p126
asVLagunitas Aunt Sally 
p127
(lp128
F3.4
aF40.0
aI1
aI4
aVhttps://lagunitas.com/u/img/beer-images/aunt-sally/Aunt-Sally-Lagunitas-12oz-Bottle.png
p129
asVThird Circle Samhradh 
p130
(lp131
F4.4
aF5.0
aI1
aI0
aVhttp://media.istockphoto.com/photos/beer-bottle-picture-id175533358?k=6&m=175533358&s=170667a&w=0&h=de2hI2j7Ie8LiNCvkRlS-wwxhChsggEDoX9SDagZnAY=
p132
asVBay Ale Irish Red Ale 
p133
(lp134
F4.3
aF29.0
aI1
aI0
aVhttp://noreast.ie/Content/Images/Beers/galwaybay_bay_ale.jpg
p135
asVOdells The Meddler 
p136
(lp137
F7.8
aF7.0
aI1
aI6
aVhttp://res.cloudinary.com/ratebeer/image/upload/w_250,c_limit/beer_185267.jpg
p138
asVCHIMAY BLUE GRANDE RES
p139
(lp140
F8.8
aF7.0
aI1
aI0
aVhttp://res.cloudinary.com/ratebeer/image/upload/w_250,c_limit/beer_53.jpg
p141
asVMikkeller Spontan Cherry 
p142
(lp143
F6.6
aF7.0
aI1
aI4
aVhttp://res.cloudinary.com/ratebeer/image/upload/w_250,c_limit/beer_205607.jpg
p144
asVChimay White
p145
(lp146
F8.0
aF100.0
aI1
aI0
aVhttp://res.cloudinary.com/ratebeer/image/upload/w_250,c_limit/beer_52.jpg
p147
asVKinnegar Brewing Yannaroddy
p148
(lp149
F4.4
aF7.0
aI1
aI0
aVhttp://www.martinsofflicence.ie/cms/images/737x737_p1395749582350_kinnegar_yannaroddy_porter..jpg
p150
asVOud Beersel Schaarbeekse Oude
p151
(lp152
F6.8
aF1.0
aI1
aI7
aVhttp://res.cloudinary.com/ratebeer/image/upload/w_250,c_limit/beer_409938.jpg
p153
asVAnchor Porter 
p154
(lp155
F4.6
aF7.0
aI1
aI0
aVhttp://res.cloudinary.com/ratebeer/image/upload/w_250,c_limit/beer_48.jpg
p156
asVLeft Hand Smokejumper 
p157
(lp158
F7.4
aF7.0
aI1
aI0
aVhttp://res.cloudinary.com/ratebeer/image/upload/w_250,c_limit/beer_65635.jpg
p159
asVSchneider Tap X Maries Rendezv
p160
(lp161
F8.4
aF7.0
aI1
aI0
aVhttp://res.cloudinary.com/ratebeer/image/upload/w_250,c_limit/beer_398355.jpg
p162
asVBrewDog Cocoa Psycho
p163
(lp164
F10.0
aF7.0
aI1
aI0
aVhttp://www.worldbeerawards.com/media/bottles/23476-120x400.jpg
p165
asVBlackJack Drogheda Cream 
p166
(lp167
F4.6
aF7.0
aI1
aI0
aVhttp://www.martinsofflicence.ie/cms/images/260x510_p1425993781860_jack-codys-black-jack,-drogheda-cream-stout-3.jpg
p168
asVBrewDog 5AM Saint 
p169
(lp170
F4.8
aF7.0
aI1
aI0
aVhttp://beerstore.com.au/wp-content/uploads/2015/10/brewdog-5am-saint-beer-online-1378101233.jpg
p171
asVAsahi 
p172
(lp173
F5.0
aF100.0
aI1
aI0
aVhttp://www.odonovansofflicence.com/wp-content/uploads/2016/03/BEBTASAH5001.jpeg
p174
asVLindemans Cuvee Rene Oude Gueze
p175
(lp176
F5.8
aF7.0
aI1
aI0
aVhttp://www.merchantduvin.com/images/i-lindemans-cuvee-rene-gueuze-lambic.png
p177
asVThornbridge HALL Double Scotch
p178
(lp179
F7.7
aF7.0
aI1
aI0
aVhttp://www.beergonzo.co.uk/pictures/3a90fb6b-b4a2-484c-98d8-bb7b1a0d9c9a.jpg
p180
asVBREWDOG PUNK IPA 
p181
(lp182
F5.4
aF7.0
aI1
aI0
aVhttps://www.shoppersvineyard.com/images/labels/brewdog-punk-ipa.gif
p183
asVFounders Centennial IPA 
p184
(lp185
F5.4
aF36.0
aI1
aI0
aVhttp://res.cloudinary.com/ratebeer/image/upload/w_250,c_limit/beer_3168.jpg
p186
asVBoon Geuze 
p187
(lp188
F4.6
aF29.0
aI1
aI6
aVhttp://res.cloudinary.com/ratebeer/image/upload/w_250,c_limit/beer_4631.jpg
p189
asVOdells Footprint 
p190
(lp191
F9.4
aF7.0
aI1
aI0
aVhttp://beerstreetjournal.com/wp-content/uploads/Screen-Shot-2012-01-31-at-12.09.31-PM.png
p192
asVAnchor IPA 
p193
(lp194
F6.5
aF100.0
aI1
aI0
aVhttps://cdn.beeradvocate.com/im/beers/112128.jpg
p195
asVSiren Vanilla Weisse 
p196
(lp197
F2.8
aF7.0
aI1
aI3
aVhttp://www.beergonzo.co.uk/pictures/c42af04e-4f47-493e-8ff3-1d5522dad993.jpg
p198
asVLagunitas IPA 
p199
(lp200
F4.5
aF40.0
aI1
aI0
aVhttp://res.cloudinary.com/ratebeer/image/upload/w_250,c_limit/beer_6887.jpg
p201
asVCHIMAY RED PREMIERE 
p202
(lp203
F6.1
aF7.0
aI1
aI0
aVhttp://res.cloudinary.com/ratebeer/image/upload/w_250,c_limit/beer_51.jpg
p204
asVBrooklyn Monster Ale 
p205
(lp206
F11.1
aF7.0
aI1
aI0
aVhttp://brooklynbrewery.com/system/beers/11_shelf_monsterale_original.png?1421879941
p207
asVLindemans Spontanbasil 750
p208
(lp209
F4.6
aF29.0
aI1
aI4
aVhttp://res.cloudinary.com/ratebeer/image/upload/w_250,c_limit/beer_331545.jpg
p210
asVFounders Porter 
p211
(lp212
F5.5
aF7.0
aI1
aI0
aVhttp://res.cloudinary.com/ratebeer/image/upload/w_250,c_limit/beer_3173.jpg
p213
asVBrewDog Black Eyed King Imp 33
p214
(lp215
F13.5
aF7.0
aI1
aI0
aVhttp://res.cloudinary.com/ratebeer/image/upload/w_250,c_limit/beer_369326.jpg
p216
asVBoon Kreik Mariage Parfai
p217
(lp218
F6.7
aF7.0
aI1
aI5
aVhttp://res.cloudinary.com/ratebeer/image/upload/w_250,c_limit/beer_6924.jpg
p219
asVCHIMAY WHITE CINQ CENTS 
p220
(lp221
F6.8
aF6.0
aI1
aI0
aVhttp://res.cloudinary.com/ratebeer/image/upload/w_250,c_limit/beer_52.jpg
p222
asVThornbridge HALL Sour Brown 50
p223
(lp224
F7.1
aF7.0
aI1
aI5
aVhttp://res.cloudinary.com/ratebeer/image/upload/w_250,c_limit/beer_97342.jpg
p225
asVPORTERHOUSE PLAIN 
p226
(lp227
F3.1
aF7.0
aI1
aI0
aVhttp://www.theporterhouse.ie/images/beers/bottle-plain.png
p228
asVBrooklyn Hand 
p229
(lp230
F14.3
aF7.0
aI1
aI0
aVhttp://brooklynbrewery.com/system/beers/49_shelf_HandSeal-750ml-Website-LR_original.png?1442434934
p231
asVBrooklyn Local 2 
p232
(lp233
F8.7
aF30.0
aI1
aI0
aVhttp://res.cloudinary.com/ratebeer/image/upload/w_250,c_limit/beer_96545.jpg
p234
asVWEIHENSTEPHANER KRISTALL 
p235
(lp236
F2.2
aF7.0
aI1
aI0
aVhttps://m.danmurphys.com.au/media/DM/Product/750x2000/904075_0_9999_v1_m56577569839962019.jpg
p237
asVLa Trappe Dubbel 
p238
(lp239
F6.8
aF7.0
aI1
aI0
aVhttp://res.cloudinary.com/ratebeer/image/upload/w_250,c_limit/beer_4563.jpg
p240
asVBeavertown Black Betty C 
p241
(lp242
F6.2
aF34.0
aI1
aI0
aVhttp://res.cloudinary.com/ratebeer/image/upload/w_250,c_limit/beer_191161.jpg
p243
asVSTAROPRAMEN 
p244
(lp245
F4.8
aF7.0
aI1
aI0
aVhttp://m.beerforum.co.kr/files/attach/images/1434/163/115/05e8aebc5c738d97f642cc960bb94795.jpg
p246
asVFounders Mango Magnifico 
p247
(lp248
F9.8
aF7.0
aI1
aI0
aVhttp://res.cloudinary.com/ratebeer/image/upload/w_250,c_limit/beer_219170.jpg
p249
asVBoon Kriek 
p250
(lp251
F0.8
aF7.0
aI1
aI2
aVhttp://res.cloudinary.com/ratebeer/image/upload/w_250,c_limit/beer_4505.jpg
p252
asVOud Beersel Beersalis Tripel 7
p253
(lp254
F10.3
aF7.0
aI1
aI0
aVhttp://res.cloudinary.com/ratebeer/image/upload/w_250,c_limit/beer_53967.jpg
p255
asVMetalman Heatsink 
p256
(lp257
F4.5
aF7.0
aI1
aI0
aVhttps://www.obrienswine.ie/media/catalog/product/1/5/15B169-Metalman-Heat-Sink-Porter-33cl-Can.png
p258
asVStone Arrogant Bastard
p259
(lp260
F7.2
aF100.0
aI1
aI0
aVhttp://stonesalesmaterials.com/wp-content/uploads/2014/09/2014_BourbonABA_bottle_Web.png
p261
asVFourpure Juicebox Citrus IPA 5
p262
(lp263
F4.4
aF54.0
aI1
aI0
aVhttp://www.martinsofflicence.ie/cms/images/260x510_p1471345856900_fourpure_juicebox_citrus_ipa_can.jpg
p264
asVCHIMAY BLUE 
p265
(lp266
F8.8
aF7.0
aI1
aI0
aVhttp://res.cloudinary.com/ratebeer/image/upload/w_250,c_limit/beer_53.jpg
p267
asVAnchor Steam Beer 
p268
(lp269
F1.9
aF29.0
aI1
aI0
aVhttp://res.cloudinary.com/ratebeer/image/upload/w_250,c_limit/beer_46.jpg
p270
asVPORTERHOUSE OYSTER STOUT
p271
(lp272
F4.4
aF7.0
aI1
aI0
aVhttp://res.cloudinary.com/ratebeer/image/upload/w_250,c_limit/beer_11379.jpg
p273
asVWEIHENSTEPHANER VITUS 
p274
(lp275
F6.0
aF7.0
aI1
aI0
aVhttp://www.worldbeerawards.com/media/bottles/5382-120x400.jpg
p276
asVAnderson V Brother David 
p277
(lp278
F10.4
aF7.0
aI1
aI0
aVhttp://res.cloudinary.com/ratebeer/image/upload/w_250,c_limit/beer_34081.jpg
p279
asVFounders Imperial Stout 
p280
(lp281
F10.6
aF7.0
aI1
aI0
aVhttp://res.cloudinary.com/ratebeer/image/upload/w_250,c_limit/beer_5933.jpg
p282
asVBrewDog Nanny State 
p283
(lp284
F0.3
aF7.0
aI1
aI0
aVhttp://www.beersofeurope.co.uk/media/catalog/product/cache/1/image/9df78eab33525d08d6e5fb8d27136e95/pimages/BrewdogNannyState.jpg
p285
asVWhite Gypsy Russian Impy 
p286
(lp287
F6.8
aF7.0
aI1
aI0
aVhttp://media.istockphoto.com/photos/beer-bottle-picture-id175533358?k=6&m=175533358&s=170667a&w=0&h=de2hI2j7Ie8LiNCvkRlS-wwxhChsggEDoX9SDagZnAY=
p288
asVAnchor Brekles Brown 
p289
(lp290
F4.3
aF4.0
aI1
aI0
aVhttp://res.cloudinary.com/ratebeer/image/upload/w_250,c_limit/beer_139388.jpg
p291
asVFounders Centennial IPA Can
p292
(lp293
F5.4
aF36.0
aI1
aI0
aVhttp://res.cloudinary.com/ratebeer/image/upload/w_250,c_limit/beer_3168.jpg
p294
asVPeroni Nastro Azzurro 
p295
(lp296
F3.5
aF37.0
aI1
aI0
aVhttp://res.cloudinary.com/ratebeer/image/upload/w_250,c_limit/beer_3029.jpg
p297
asVOscar Blues Old Chub Can 355M
p298
(lp299
F7.1
aF7.0
aI1
aI0
aVhttp://res.cloudinary.com/ratebeer/image/upload/w_250,c_limit/beer_11579.jpg
p300
asVWeihenstephaner Non Alchol 500
p301
(lp302
F-1.2
aF7.0
aI1
aI0
aVhttp://res.cloudinary.com/ratebeer/image/upload/w_250,c_limit/beer_6038.jpg
p303
asVSka Brewing Decadent IPA Can
p304
(lp305
F10.0
aF32.0
aI8
aI0
aVhttp://res.cloudinary.com/ratebeer/image/upload/w_250,c_limit/beer_43088.jpg
p306
asVOdells Trellis Garden Al 
p307
(lp308
F8.3
aF35.0
aI1
aI0
aVhttp://res.cloudinary.com/ratebeer/image/upload/w_250,c_limit/beer_274475.jpg
p309
asVMikkeller Raspberry Quadrupel
p310
(lp311
F12.9
aF7.0
aI1
aI0
aVhttp://res.cloudinary.com/ratebeer/image/upload/w_250,c_limit/beer_317889.jpg
p312
asVSka Brewing Modus Hoperandi Ca
p313
(lp314
F6.2
aF41.0
aI1
aI0
aVhttp://res.cloudinary.com/ratebeer/image/upload/w_250,c_limit/beer_99487.jpg
p315
asVCorona Light
p316
(lp317
F4.6
aF100.0
aI1
aI0
aVhttp://rsvpmagazine.ie/wp-content/uploads/2013/06/Corona-Light.jpg
p318
asVLindemans Cuvee Rene Kriek 750
p319
(lp320
F5.0
aF0.0
aI1
aI6
aVhttp://res.cloudinary.com/ratebeer/image/upload/w_250,c_limit/beer_72448.jpg
p321
asVLagunitas Little Sumpin' 
p322
(lp323
F5.6
aF35.0
aI1
aI0
aVhttp://res.cloudinary.com/ratebeer/image/upload/w_250,c_limit/beer_103006.jpg
p324
asVCHIMAY RED
p325
(lp326
F6.1
aF7.0
aI1
aI0
aVhttp://res.cloudinary.com/ratebeer/image/upload/w_250,c_limit/beer_51.jpg
p327
asVRochefort 10
p328
(lp329
F11.3
aF100.0
aI1
aI0
aVhttp://res.cloudinary.com/ratebeer/image/upload/w_250,c_limit/beer_2360.jpg
p330
asVWicklow Wolf Black Perle 
p331
(lp332
F4.7
aF7.0
aI1
aI0
aVhttp://www.fourcorners.ie/perch/resources/products/black-perle-porterpw-2.jpg
p333
asVOdells Drumroll APA Can 
p334
(lp335
F3.5
aF49.0
aI1
aI0
aVhttp://res.cloudinary.com/ratebeer/image/upload/w_250,c_limit/beer_424542.jpg
p336
asV3 Fonteinen Intense Red 
p337
(lp338
F5.8
aF7.0
aI1
aI0
aVhttps://www.beergium.com/3339-big_default/3-fonteinen-intense-red-oude-kriek-75cl.jpg
p339
asVRodenbach Grand Cru 
p340
(lp341
F5.0
aF7.0
aI1
aI5
aVhttp://res.cloudinary.com/ratebeer/image/upload/w_250,c_limit/beer_1194.jpg
p342
asVLindemans Blossom Geuze 
p343
(lp344
F4.8
aF30.0
aI1
aI5
aVhttps://www.beergium.com/3454-thickbox_default/lindemans-blossom-gueuze-75cl.jpg
p345
asV3 Fonteinen Oude Kreik 
p346
(lp347
F6.3
aF7.0
aI1
aI0
aVhttp://res.cloudinary.com/ratebeer/image/upload/w_250,c_limit/beer_311175.jpg
p348
asVWicklow Wolf Kentucky Com
p349
(lp350
F4.8
aF7.0
aI1
aI1
aVhttp://res.cloudinary.com/ratebeer/image/upload/w_250,c_limit/beer_300882.jpg
p351
asVWEIHENSTEPHANER DUNKEL 
p352
(lp353
F3.9
aF7.0
aI1
aI0
aVhttp://www.beergonzo.co.uk/pictures/1b972403-ad81-4521-875c-f22b5f098063.jpg
p354
asVSierra Nevada Torpedo
p355
(lp356
F7.2
aF100.0
aI1
aI0
aVhttp://res.cloudinary.com/ratebeer/image/upload/w_250,c_limit/beer_59261.jpg
p357
asVBLACK ROCK STOUT 
p358
(lp359
F3.6
aF7.0
aI1
aI0
aVhttp://res.cloudinary.com/ratebeer/image/upload/w_250,c_limit/beer_128477.jpg
p360
asVStone Brewing Cali
p361
(lp362
F6.1
aF34.0
aI1
aI0
aVhttp://res.cloudinary.com/ratebeer/image/upload/w_250,c_limit/beer_87480.jpg
p363
asVOdells Runoff Red Ale 
p364
(lp365
F4.4
aF33.0
aI1
aI0
aVhttp://thefullpint.com/wp-content/uploads/2013/12/odell-runoff-red-ipa-bottle.jpg
p366
asVWEIHENSTEPHANER HEFE 
p367
(lp368
F2.2
aF7.0
aI1
aI0
aVhttp://res.cloudinary.com/ratebeer/image/upload/w_250,c_limit/beer_1156.jpg
p369
asVLa Trappe Quadrupel 
p370
(lp371
F10.0
aF7.0
aI1
aI0
aVhttp://res.cloudinary.com/ratebeer/image/upload/w_250,c_limit/beer_4565.jpg
p372
asVSUNBURNT RED ALE 
p373
(lp374
F3.7
aF6.0
aI1
aI0
aVhttp://res.cloudinary.com/ratebeer/image/upload/w_250,c_limit/beer_154054.jpg
p375
asVOdells Friek 
p376
(lp377
F8.4
aF7.0
aI1
aI5
aVhttp://res.cloudinary.com/ratebeer/image/upload/w_250,c_limit/beer_113162.jpg
p378
asVMaisel 
p379
(lp380
F6.9
aF7.0
aI1
aI0
aVhttp://res.cloudinary.com/ratebeer/image/upload/w_250,c_limit/beer_185853.jpg
p381
asVSierra Nevada Ruthless Ry
p382
(lp383
F5.8
aF40.0
aI1
aI0
aVhttp://res.cloudinary.com/ratebeer/image/upload/w_250,c_limit/beer_159987.jpg
p384
asVSpencer Trappist Ale 
p385
(lp386
F5.2
aF0.0
aI1
aI0
aVhttp://res.cloudinary.com/ratebeer/image/upload/w_250,c_limit/beer_241569.jpg
p387
asVFounders reDANKulous 
p388
(lp389
F9.3
aF7.0
aI1
aI0
aVhttp://media.istockphoto.com/photos/beer-bottle-picture-id175533358?k=6&m=175533358&s=170667a&w=0&h=de2hI2j7Ie8LiNCvkRlS-wwxhChsggEDoX9SDagZnAY=
p390
asVOBrother The Sinner IPA 
p391
(lp392
F6.1
aF38.0
aI1
aI0
aVhttps://cdn.shopify.com/s/files/1/0286/4636/products/15B178-O-Brother-Brewing-Sinner-IPA-50cl-Bottle.png?v=1480078363
p393
asVBrooklyn Black Chocolate 
p394
(lp395
F9.1
aF7.0
aI1
aI0
aVhttp://res.cloudinary.com/ratebeer/image/upload/w_250,c_limit/beer_531.jpg
p396
asVcks Kinsale 'KPA' 
p397
(lp398
F4.0
aF47.0
aI1
aI0
aVhttp://res.cloudinary.com/ratebeer/image/upload/w_250,c_limit/beer_217458.jpg
p399
asVSierra Nevada Pale Ale Can 473
p400
(lp401
F2.1
aF42.0
aI1
aI0
aVhttp://res.cloudinary.com/ratebeer/image/upload/w_250,c_limit/beer_365.jpg
p402
asVBrewDog Kingpin Lager
p403
(lp404
F2.9
aF29.0
aI1
aI0
aVhttp://www.beersofeurope.co.uk/media/catalog/product/cache/1/image/9df78eab33525d08d6e5fb8d27136e95/pimages/BrewdogKingpin.jpg
p405
asVAnchor Old Foghorn 
p406
(lp407
F9.5
aF7.0
aI1
aI0
aVhttp://res.cloudinary.com/ratebeer/image/upload/w_250,c_limit/beer_4728.jpg
p408
asVSchorsch Bock ICE 30 
p409
(lp410
F29.8
aF7.0
aI1
aI0
aVhttp://biershop.bierpost.com/Media/Thumbs/0003/0003527-schorschbock-ice-30-mit-30-033l-300.gif
p411
asVRascal's Yankee White IPA 
p412
(lp413
F4.8
aF39.0
aI1
aI0
aVhttp://www.martinsofflicence.ie/cms/images/260x510_p1455027156120_rascals_yankee_white_ipa.jpg
p414
asVKrombacher Pils Can 
p415
(lp416
F2.8
aF33.0
aI1
aI0
aVhttp://res.cloudinary.com/ratebeer/image/upload/w_250,c_limit/beer_3370.jpg
p417
asVO'HARAS STOUT 
p418
(lp419
F4.1
aF100.0
aI1
aI0
aVhttp://res.cloudinary.com/ratebeer/image/upload/w_250,c_limit/beer_5830.jpg
p420
asVWhite Hag IPA 
p421
(lp422
F7.2
aF100.0
aI1
aI0
aVhttps://cdn.shopify.com/s/files/1/0286/4636/products/white_hag.jpg?v=1422444987
p423
asVSierra Nevada Hop Hunter 355
p424
(lp425
F6.2
aF100.0
aI1
aI0
aVhttp://res.cloudinary.com/ratebeer/image/upload/w_250,c_limit/beer_250957.jpg
p426
asVBrooklyn Silver Anniversary Lager
p427
(lp428
F8.8
aF7.0
aI1
aI0
aVhttp://res.cloudinary.com/ratebeer/image/upload/w_250,c_limit/beer_204873.jpg
p429
asVAnchor Saison Spring Ale 
p430
(lp431
F6.0
aF7.0
aI1
aI0
aVhttp://www.glunzbeers.com/wp-content/uploads/2014/08/ABCSteam12oz033015SH-HR_crop-496x1024.png
p432
asVStone Barrel Brewing Boom IPA
p433
(lp434
F4.8
aF33.0
aI1
aI0
aVhttp://www.martinsofflicence.ie/cms/images/260x510_p1391086297922_stone-barrel-boom-session-ipa-2.jpg
p435
asVSierra Nevada Nooner Can
p436
(lp437
F2.0
aF41.0
aI1
aI0
aVhttp://res.cloudinary.com/ratebeer/image/upload/w_250,c_limit/beer_307541.jpg
p438
asVCOPPER COAST RED ALE 
p439
(lp440
F4.1
aF7.0
aI1
aI0
aVhttp://dungarvanbrewingcompany.com/wp-content/uploads/2012/10/copper_big1.png
p441
asVBudvar
p442
(lp443
F5.0
aF100.0
aI1
aI0
aVhttp://res.cloudinary.com/ratebeer/image/upload/w_250,c_limit/beer_1316.jpg
p444
asVPuck Pilsner 
p445
(lp446
F4.4
aF0.0
aI1
aI0
aVhttps://www.obrienswine.ie/media/catalog/product/1/5/15B083-Jack-Cody_s-Puck-Pilsner-50cl-Bottle.png
p447
asVOBrother The Fixer Red Ale
p448
(lp449
F5.4
aF36.0
aI1
aI0
aVhttp://www.martinsofflicence.ie/cms/images/260x510_p1472032953577_o-brother-brewing-fixer-amber-ale.jpg
p450
asVFourpure Skyliner Wheat Summer
p451
(lp452
F3.1
aF43.0
aI1
aI0
aVhttps://assets.londonist.com/uploads/2016/05/i730/four.jpg
p453
asVCOOPERS SPK. ALE 
p454
(lp455
F5.8
aF100.0
aI1
aI0
aVhttp://mrliquor.com.au/ma4/images/stories/virtuemart/product/COOPERS_SPK_ALE__51103402ae61d.jpg
p456
asVhenstephaner Original Helle
p457
(lp458
F1.5
aF28.0
aI1
aI0
aVhttp://cdn6.bigcommerce.com/s-fuwlhuh/products/357/images/619/Weihenstephaner_Original_Helles_new__37535.1437385886.490.588.png?c=2
p459
asVBirrifico L'Ultima Luna 
p460
(lp461
F14.4
aF7.0
aI1
aI0
aVhttp://lapobbia.com/wp-content/uploads/2013/10/lultima-luna.png
p462
asVFounders Dirty Bastard 
p463
(lp464
F8.7
aF7.0
aI1
aI0
aVhttp://res.cloudinary.com/ratebeer/image/upload/w_250,c_limit/beer_11498.jpg
p465
asVFounders Rubaeus Can 
p466
(lp467
F3.7
aF7.0
aI1
aI0
aVhttp://res.cloudinary.com/ratebeer/image/upload/w_250,c_limit/beer_46846.jpg
p468
asVChimay Doree Goud 
p469
(lp470
F3.3
aF4.0
aI1
aI0
aVhttp://res.cloudinary.com/ratebeer/image/upload/w_250,c_limit/beer_14228.jpg
p471
asVTrouble Brewing Dark Arts Port
p472
(lp473
F3.8
aF7.0
aI1
aI0
aVhttp://res.cloudinary.com/ratebeer/image/upload/w_250,c_limit/beer_140325.jpg
p474
asVAnchor Christmas 2015  
p475
(lp476
F5.3
aF7.0
aI1
aI0
aVhttps://2fdltvvn8wp2rn64ywgk8o17-wpengine.netdna-ssl.com/wp-content/uploads/2015/01/anchor-christmas-ale-2014.png
p477
asVSt. Bernardus Abt 12 
p478
(lp479
F10.4
aF32.0
aI1
aI0
aVhttp://res.cloudinary.com/ratebeer/image/upload/w_250,c_limit/beer_2530.jpg
p480
asVWicklow Wolf American Amber
p481
(lp482
F4.5
aF29.0
aI1
aI0
aVhttp://www.fourcorners.ie/perch/resources/products/american-amberpw-2.jpg
p483
asVBrooklyn Local 1
p484
(lp485
F8.8
aF7.0
aI1
aI0
aVhttp://www.omega-level.net/wp-content/uploads/2010/02/Brooklyn-Local-1.jpg
p486
asVLagunitas Wilco Tango Foxtrot
p487
(lp488
F6.9
aF8.0
aI1
aI0
aVhttp://res.cloudinary.com/ratebeer/image/upload/w_250,c_limit/beer_117140.jpg
p489
asVOud Beersel Oude Kriek 
p490
(lp491
F5.8
aF3.0
aI1
aI6
aVhttp://res.cloudinary.com/ratebeer/image/upload/w_250,c_limit/beer_10908.jpg
p492
asVFounders KBS 2016 
p493
(lp494
F13.2
aF7.0
aI1
aI0
aVhttp://res.cloudinary.com/ratebeer/image/upload/w_250,c_limit/beer_40544.jpg
p495
asVBrewDog Sink The Bismark 
p496
(lp497
F43.1
aF29.0
aI1
aI0
aVhttp://beerstore.com.au/wp-content/uploads/2015/10/brew-dog-sink-bismark-beer-online-1369618023.jpg
p498
asVOud Beersel Green Walnut 
p499
(lp500
F5.3
aF6.0
aI1
aI6
aVhttp://res.cloudinary.com/ratebeer/image/upload/w_250,c_limit/beer_348368.jpg
p501
asVBlacks Kinsale Black IPA 
p502
(lp503
F4.9
aF31.0
aI1
aI0
aVhttp://res.cloudinary.com/ratebeer/image/upload/w_250,c_limit/beer_236468.jpg
p504
asVewDog JackHammer 
p505
(lp506
F6.3
aF57.0
aI1
aI0
aVhttp://res.cloudinary.com/ratebeer/image/upload/w_250,c_limit/beer_178585.jpg
p507
asVBrooklyn Lager
p508
(lp509
F5.2
aF100.0
aI1
aI0
aVhttp://res.cloudinary.com/ratebeer/image/upload/w_120,c_limit/beer_528.jpg
p510
asVBrewDog Restorative Can 
p511
(lp512
F8.5
aF100.0
aI1
aI0
aVhttp://cdn2.bigcommerce.com/server2400/0294a/products/5215/images/5970/Brewdog_Restorative_Beverage__94811.1473857983.1280.1280.jpg?c=2
p513
asVBarefoot Bohemian Lager
p514
(lp515
F3.5
aF32.0
aI1
aI0
aVhttp://www.beersofeurope.co.uk/media/catalog/product/cache/1/image/9df78eab33525d08d6e5fb8d27136e95/pimages/EightdegreesBarefootBohemian.jpg
p516
asVLindemans Faro 
p517
(lp518
F3.9
aF7.0
aI1
aI4
aVhttp://res.cloudinary.com/ratebeer/image/upload/w_250,c_limit/beer_6376.jpg
p519
asVO'Haras Notorious Red IPA
p520
(lp521
F4.5
aF35.0
aI1
aI0
aVhttps://www.obrienswine.ie/media/catalog/product/1/6/16B030-O_Haras-Notorious-Red-IPA-50cl-Bottle.png
p522
asVBlacks Kinsale 'KPA' Can 
p523
(lp524
F4.0
aF47.0
aI1
aI0
aVhttp://res.cloudinary.com/ratebeer/image/upload/w_250,c_limit/beer_217458.jpg
p525
asVLagunitas Censored 
p526
(lp527
F4.9
aF5.0
aI1
aI0
aVhttp://res.cloudinary.com/ratebeer/image/upload/w_250,c_limit/beer_8829.jpg
p528
asVO'Hara's Imperial Stout 
p529
(lp530
F9.8
aF7.0
aI1
aI0
aVhttp://www.martinsofflicence.ie/cms/images/260x510_p1459254599946_oharas_imperial_stout_20th_anniversary.jpg
p531
asVBeavertown Smog Rocket Can 330
p532
(lp533
F3.8
aF7.0
aI1
aI0
aVhttps://www.beermerchants.com/media/catalog/product/cache/1/image/x400/17f82f742ffe127f42dca9de82fb58b1/b/e/beavertown_smog_rocket_2.png
p534
asVRascal's Wunderbar IPA
p535
(lp536
F5.7
aF32.0
aI1
aI0
aVhttp://www.martinsofflicence.ie/cms/images/260x510_p1469807501849_wunderbar_render.jpg
p537
asVLagunitas Brown Shugga 
p538
(lp539
F9.6
aF0.0
aI1
aI0
aVhttp://res.cloudinary.com/ratebeer/image/upload/w_250,c_limit/beer_8732.jpg
p540
asVPORTERHOUSE RED 
p541
(lp542
F3.3
aF7.0
aI1
aI0
aVhttp://res.cloudinary.com/ratebeer/image/upload/w_250,c_limit/beer_11376.jpg
p543
asVewDog Bourbon Baby 
p544
(lp545
F5.0
aF7.0
aI1
aI0
aVhttp://res.cloudinary.com/ratebeer/image/upload/w_250,c_limit/beer_252097.jpg
p546
asVBrooklyn Cuvee Noir 
p547
(lp548
F10.9
aF7.0
aI1
aI0
aVhttp://brooklynbrewery.com/system/beers/44_shelf_CuveeNoire-750ml-LR_original.png?1442434954
p549
asVOscar Blues Dales Pale Ale
p550
(lp551
F4.7
aF37.0
aI1
aI0
aVhttp://res.cloudinary.com/ratebeer/image/upload/w_250,c_limit/beer_11576.jpg
p552
asVFounders Mosaic Promise 
p553
(lp554
F4.0
aF52.0
aI1
aI0
aVhttp://res.cloudinary.com/ratebeer/image/upload/w_250,c_limit/beer_226680.jpg
p555
asVFounders Sumatra Mountain Brow
p556
(lp557
F8.7
aF7.0
aI1
aI0
aVhttp://res.cloudinary.com/ratebeer/image/upload/w_250,c_limit/beer_135773.jpg
p558
asVSpaten Lager
p559
(lp560
F5.2
aF100.0
aI1
aI0
aVhttp://lakebeverage.com/wp-content/uploads/2015/03/Spaten-Premium-Lager.png
p561
asVCOOPERS PALE ALE 
p562
(lp563
F3.2
aF34.0
aI1
aI0
aVhttp://res.cloudinary.com/ratebeer/image/upload/w_250,c_limit/beer_4060.jpg
p564
asVBrooklyn Intensified Coffee Po
p565
(lp566
F11.8
aF100.0
aI1
aI0
aVhttps://decrescente.net/images/suppliers/brooklyn-brewery/brooklyn-intensified-coffee-porter/intensified-coffee-porter-bottle-lg.png
p567
asVBrewDog Dead Pony Club 
p568
(lp569
F1.3
aF48.0
aI1
aI0
aVhttp://res.cloudinary.com/ratebeer/image/upload/w_250,c_limit/beer_172207.jpg
p570
asVMikkeller Raspberry Trippelboc
p571
(lp572
F13.0
aF7.0
aI1
aI0
aVhttp://res.cloudinary.com/ratebeer/image/upload/w_250,c_limit/beer_317889.jpg
p573
asVBrewDog Ship Wreck 
p574
(lp575
F14.5
aF7.0
aI1
aI0
aVhttp://www.beersofeurope.co.uk/media/catalog/product/cache/1/image/9df78eab33525d08d6e5fb8d27136e95/pimages/BrewdogShipWreck.jpg
p576
asVOdells St. Lupulin
p577
(lp578
F3.9
aF48.0
aI1
aI0
aVhttp://www.martinsofflicence.ie/cms/images/260x510_p1472133158777_st_lupulin_extra_pale_ale_can.jpg
p579
asVBrooklyn East India Pale 
p580
(lp581
F5.2
aF35.0
aI1
aI0
aVhttp://res.cloudinary.com/ratebeer/image/upload/w_250,c_limit/beer_530.jpg
p582
asVBREWDOG TOKYO 
p583
(lp584
F17.2
aF7.0
aI1
aI0
aVhttp://res.cloudinary.com/ratebeer/image/upload/w_250,c_limit/beer_107203.jpg
p585
asVBuried At Sea Chocolate Milk Stout
p586
(lp587
F4.5
aF100.0
aI1
aI0
aVhttps://lh3.googleusercontent.com/ZmuTr5STboTbtjg-MktoJZl3YiXitvEQ1LrPAEtasW4xgevCdmzpFrDvD6-jkYF8-aQK-bbf9V_wtpb-0K95_UY=s350
p588
asVBRAINBLASTA 
p589
(lp590
F7.0
aF100.0
aI1
aI0
aVhttp://cdn.shopify.com/s/files/1/0286/4636/products/PorterhouseBrainblasta_grande.jpg?v=1403865154
p591
asVOud Beersel Oude Geuze 
p592
(lp593
F5.0
aF31.0
aI1
aI6
aVhttp://res.cloudinary.com/ratebeer/image/upload/w_250,c_limit/beer_10907.jpg
p594
asVSierra Nevada Porter 
p595
(lp596
F4.4
aF7.0
aI1
aI0
aVhttp://res.cloudinary.com/ratebeer/image/upload/w_250,c_limit/beer_366.jpg
p597
asVOscar Blues Pinner Throwback I
p598
(lp599
F2.2
aF44.0
aI1
aI0
aVhttp://res.cloudinary.com/ratebeer/image/upload/w_250,c_limit/beer_305178.jpg
p600
asVFourpure Session IPA
p601
(lp602
F1.3
aF49.0
aI1
aI0
aVhttps://www.beermerchants.com/media/catalog/product/f/o/four_pure_session_ipa.png
p603
asVO'Hara's Leann Follain 
p604
(lp605
F8.7
aF7.0
aI1
aI0
aVhttp://www.beersofeurope.co.uk/media/catalog/product/cache/1/image/9df78eab33525d08d6e5fb8d27136e95/pimages/OharasLeannFollain.jpg
p606
asVThornbridge Jaipur 
p607
(lp608
F3.2
aF49.0
aI1
aI0
aVhttp://res.cloudinary.com/ratebeer/image/upload/w_250,c_limit/beer_48795.jpg
p609
asVBrooklyn Wild Streak 
p610
(lp611
F9.4
aF7.0
aI1
aI3
aVhttp://res.cloudinary.com/ratebeer/image/upload/w_250,c_limit/beer_250350.jpg
p612
asVBrewDog Dead Pony Club
p613
(lp614
F3.8
aF100.0
aI1
aI0
aVhttp://res.cloudinary.com/ratebeer/image/upload/w_250,c_limit/beer_172207.jpg
p615
asVFourpure Pale Ale Can 
p616
(lp617
F5.0
aF100.0
aI1
aI0
aVhttp://www.pivovarorders.co.uk/user/products/large/fourpure%20american%20pale%20ale%20CAN.jpg
p618
asVSiren Pompelmocello 
p619
(lp620
F3.4
aF47.0
aI1
aI3
aVhttps://www.beermerchants.com/media/catalog/product/s/i/siren_pompelmocello.png
p621
asVMetalman Equinox 
p622
(lp623
F3.7
aF38.0
aI1
aI0
aVhttp://www.martinsofflicence.ie/cms/images/260x510_p1440510769881_metal-man-2.jpg
p624
asVBrooklyn Lager 
p625
(lp626
F3.1
aF32.0
aI1
aI0
aVhttp://res.cloudinary.com/ratebeer/image/upload/w_250,c_limit/beer_528.jpg
p627
asVSierra Nevada Bigfoot 2015 350
p628
(lp629
F10.0
aF7.0
aI1
aI0
aVhttp://res.cloudinary.com/ratebeer/image/upload/w_250,c_limit/beer_371.jpg
p630
asVAecht Schlenkerla Weizen 
p631
(lp632
F3.6
aF7.0
aI1
aI0
aVhttp://res.cloudinary.com/ratebeer/image/upload/w_250,c_limit/beer_8565.jpg
p633
asVWhiplash Rollover Session IPA
p634
(lp635
F3.6
aF47.0
aI1
aI0
aVhttp://res.cloudinary.com/ratebeer/image/upload/w_250,c_limit/beer_412929.jpg
p636
asVSka Brewing Rudie Session IPA
p637
(lp638
F1.5
aF41.0
aI1
aI0
aVhttp://res.cloudinary.com/ratebeer/image/upload/w_250,c_limit/beer_280927.jpg
p639
asVFRANZISKANER HEFE 
p640
(lp641
F2.6
aF7.0
aI1
aI0
aVhttp://res.cloudinary.com/ratebeer/image/upload/w_250,c_limit/beer_1088.jpg
p642
asVTRIPEL KARMELIET 
p643
(lp644
F7.0
aF7.0
aI1
aI0
aVhttp://res.cloudinary.com/ratebeer/image/upload/w_250,c_limit/beer_5368.jpg
p645
asVYeastie Boys Digital IPA 
p646
(lp647
F5.5
aF7.0
aI1
aI0
aVhttp://www.nectar.net/productimages/YEA003%20Yeastie%20Boys%20Digital%20IPA.jpg
p648
asVLeffe Blonde 
p649
(lp650
F5.6
aF7.0
aI1
aI0
aVhttp://res.cloudinary.com/ratebeer/image/upload/w_250,c_limit/beer_2514.jpg
p651
asVFounders Rubaeus 
p652
(lp653
F3.7
aF7.0
aI1
aI0
aVhttp://res.cloudinary.com/ratebeer/image/upload/w_250,c_limit/beer_46846.jpg
p654
asVOscar Blues Mama's Little Yell
p655
(lp656
F2.7
aF38.0
aI1
aI0
aVhttp://1.bp.blogspot.com/-IVe8S-HOOjg/VS24Xe9LbQI/AAAAAAAAiPo/XYp4d-aOvTo/s1600/mama's%2Blittle%2Byella%2Bpils%2Boskar%2Bblues.png
p657
asVBeoir Chorca Cul Dorcha
p658
(lp659
F4.8
aF7.0
aI1
aI0
aVhttp://www.martinsofflicence.ie/cms/images/260x510_p1389718576762_west-kerry-cul-dorcha.jpg
p660
asVTrouble Brewing Deception
p661
(lp662
F2.2
aF35.0
aI1
aI0
aVhttp://res.cloudinary.com/ratebeer/image/upload/w_250,c_limit/beer_247307.jpg
p663
asVAnchor Zymaster No. 6 
p664
(lp665
F5.8
aF7.0
aI1
aI0
aVhttps://s-media-cache-ak0.pinimg.com/236x/72/4c/6a/724c6a75be9eff71bca6ba68cb854eee.jpg
p666
asVO'Haras Hop Adventure 
p667
(lp668
F5.0
aF100.0
aI1
aI0
aVhttp://www.martinsofflicence.ie/cms/images/260x510_p1437398797618_o%E2%80%99hara%E2%80%99s-hop-adventure-sorachi-ace.jpg
p669
asVFounders Breakfast Stout 
p670
(lp671
F8.0
aF7.0
aI1
aI0
aVhttp://res.cloudinary.com/ratebeer/image/upload/w_250,c_limit/beer_14956.jpg
p672
asVBrewDog Jet Black Heart 
p673
(lp674
F4.1
aF7.0
aI1
aI0
aVhttp://res.cloudinary.com/ratebeer/image/upload/w_250,c_limit/beer_395517.jpg
p675
asVWESTMALLE DUBBEL 
p676
(lp677
F6.4
aF7.0
aI1
aI0
aVhttp://res.cloudinary.com/ratebeer/image/upload/w_250,c_limit/beer_2205.jpg
p678
asVDeus 
p679
(lp680
F11.5
aF100.0
aI1
aI0
aVhttp://res.cloudinary.com/ratebeer/image/upload/w_250,c_limit/beer_18912.jpg
p681
asVStormy Port Irish Porter 
p682
(lp683
F4.4
aF7.0
aI1
aI0
aVhttp://res.cloudinary.com/ratebeer/image/upload/w_250,c_limit/beer_164660.jpg
p684
asVDupont Avec Bons Voeux 
p685
(lp686
F8.7
aF5.0
aI1
aI0
aVhttp://res.cloudinary.com/ratebeer/image/upload/w_250,c_limit/beer_11047.jpg
p687
asVMetalman Pale Ale
p688
(lp689
F2.8
aF48.0
aI1
aI0
aVhttp://www.fourcorners.ie/perch/resources/other/metalman-pale-ale.png
p690
asVRanke Hop Harvest 2015
p691
(lp692
F5.8
aF7.0
aI1
aI0
aVhttp://res.cloudinary.com/ratebeer/image/upload/w_250,c_limit/beer_189698.jpg
p693
asV3 Fonteinen Oude Kreik
p694
(lp695
F5.3
aF7.0
aI1
aI0
aVhttp://res.cloudinary.com/ratebeer/image/upload/w_250,c_limit/beer_311175.jpg
p696
asVSierra Nevada Pale Ale 
p697
(lp698
F2.1
aF42.0
aI1
aI0
aVhttp://res.cloudinary.com/ratebeer/image/upload/w_250,c_limit/beer_365.jpg
p699
asVLa Chouffe Houblon Triple IPA
p700
(lp701
F7.6
aF38.0
aI1
aI0
aVhttp://res.cloudinary.com/ratebeer/image/upload/w_250,c_limit/beer_56757.jpg
p702
asVOscar Blues Pinner Passion Fruit
p703
(lp704
F2.7
aF46.0
aI1
aI0
aVhttp://www.oakbarrel.com.au/images/products/lg_3447.jpg
p705
asVSam Adams Rebel IPA 
p706
(lp707
F5.2
aF40.0
aI1
aI0
aVhttp://res.cloudinary.com/ratebeer/image/upload/w_250,c_limit/beer_222791.jpg
p708
asVSierra Nevada North Harvest
p709
(lp710
F6.7
aF100.0
aI1
aI0
aVhttp://res.cloudinary.com/ratebeer/image/upload/w_250,c_limit/beer_131958.jpg
p711
asVVICTORY STORM KING 
p712
(lp713
F9.1
aF2.0
aI1
aI0
aVhttp://res.cloudinary.com/ratebeer/image/upload/w_250,c_limit/beer_626.jpg
p714
asVLagunitas Lucky 13 
p715
(lp716
F8.6
aF7.0
aI1
aI0
aVhttps://lagunitas.com/u/img/beer-images/lucky13/Lucky-13-Lagunitas-12-oz-Bottle.png
p717
asVStone IPA Can 
p718
(lp719
F4.9
aF46.0
aI1
aI0
aVhttp://res.cloudinary.com/ratebeer/image/upload/w_250,c_limit/beer_422.jpg
p720
asVLagunitas Stoopid Wit 
p721
(lp722
F4.7
aF42.0
aI1
aI0
aVhttp://res.cloudinary.com/ratebeer/image/upload/w_250,c_limit/beer_435254.jpg
p723
asVBeavertown Neck Oil Can 330
p724
(lp725
F4.3
aF100.0
aI1
aI0
aVimage not found
p726
asVLagunitas Pale Ale 
p727
(lp728
F3.5
aF48.0
aI1
aI0
aVhttp://res.cloudinary.com/ratebeer/image/upload/w_250,c_limit/beer_86876.jpg
p729
asVSka Brewing Modus Mandarina 35
p730
(lp731
F6.2
aF43.0
aI1
aI0
aVhttp://res.cloudinary.com/ratebeer/image/upload/w_250,c_limit/beer_260630.jpg
p732
asVWhite Hag Wit 
p733
(lp734
F3.9
aF6.0
aI1
aI0
aVhttp://www.beersofeurope.co.uk/media/catalog/product/cache/1/image/9df78eab33525d08d6e5fb8d27136e95/pimages/TheWhiteHagRedDoe.jpg
p735
asVAnchor Liberty Ale 
p736
(lp737
F4.5
aF43.0
aI1
aI0
aVhttp://res.cloudinary.com/ratebeer/image/upload/w_250,c_limit/beer_47.jpg
p738
asVTrouble Brewing Sabotage IPA
p739
(lp740
F5.1
aF36.0
aI1
aI0
aVhttp://www.martinsofflicence.ie/cms/images/708x708_p1374748070442_trouble_brewing_sabotage_india_pale_ale.jpg
p741
asVOdell's Lugene Choco Milk Stou
p742
(lp743
F7.0
aF7.0
aI1
aI0
aVhttp://res.cloudinary.com/ratebeer/image/upload/w_250,c_limit/beer_194215.jpg
p744
asVBrooklyn Sorachi  Ace
p745
(lp746
F5.6
aF41.0
aI1
aI0
aVhttp://www.beersofeurope.co.uk/media/catalog/product/cache/1/image/9df78eab33525d08d6e5fb8d27136e95/pimages/BrooklynSorachiAce.jpg
p747
asVDungarvan Mine Head 
p748
(lp749
F5.5
aF100.0
aI1
aI0
aVhttp://dungarvanbrewingcompany.com/wp-content/uploads/2012/10/mine_big.png
p750
asVSierra Nevada Torpedo 
p751
(lp752
F6.7
aF41.0
aI1
aI0
aVhttp://res.cloudinary.com/ratebeer/image/upload/w_250,c_limit/beer_59261.jpg
p753
asVBeavertown 8 Ball
p754
(lp755
F6.0
aF7.0
aI1
aI0
aVhttp://www.cavedirect.com/img/db/product-large/beavertown-8-ball-cave-direct.jpg
p756
asVVeltins Pilsner 
p757
(lp758
F3.2
aF35.0
aI1
aI0
aVhttp://res.cloudinary.com/ratebeer/image/upload/w_250,c_limit/beer_4040.jpg
p759
asVWESTMALLE TRIPEL 
p760
(lp761
F8.6
aF5.0
aI1
aI0
aVhttp://res.cloudinary.com/ratebeer/image/upload/w_250,c_limit/beer_2204.jpg
p762
asVRascal's Big Hop Red Can 
p763
(lp764
F5.0
aF31.0
aI1
aI0
aVhttp://www.martinsofflicence.ie/cms/images/260x510_p1455027698855_rascals_big_hop_red.jpg
p765
asVSierra Nevada Pale Ale Can 355
p766
(lp767
F2.1
aF42.0
aI1
aI0
aVhttp://res.cloudinary.com/ratebeer/image/upload/w_250,c_limit/beer_365.jpg
p768
asVBrewDog Vagabond P A 
p769
(lp770
F1.7
aF38.0
aI1
aI0
aVhttp://res.cloudinary.com/ratebeer/image/upload/w_250,c_limit/beer_304469.jpg
p771
asVLagunitas The Down Low 
p772
(lp773
F3.3
aF52.0
aI1
aI0
aVhttps://lagunitas.com/u/img/beer-images/downlow/DownLow_Web.png
p774
asVBeavertown Gamma Ray Can
p775
(lp776
F2.4
aF51.0
aI1
aI0
aVhttp://res.cloudinary.com/ratebeer/image/upload/w_250,c_limit/beer_189363.jpg
p777
asVOscar Blues G'Knight 
p778
(lp779
F6.6
aF7.0
aI1
aI0
aVhttp://extras.mnginteractive.com/live/media/site21/2011/0114/20110114__15dcaoskw~2.jpg
p780
asVO'HARAS LEANN FOLLAIN 
p781
(lp782
F5.2
aF7.0
aI1
aI0
aVhttp://res.cloudinary.com/ratebeer/image/upload/w_250,c_limit/beer_100788.jpg
p783
asVOBrother The Chancer APA 
p784
(lp785
F5.3
aF38.0
aI1
aI0
aVhttps://www.obrienswine.ie/media/catalog/product/1/5/15B180-O-Brother-Brewing-Chancer-APA-50cl-Bottle.png
p786
asVThornbridge Eldon 
p787
(lp788
F7.1
aF7.0
aI1
aI0
aVhttp://www.pivovarorders.co.uk/user/products/large/ELDON%20BOTTLE.png
p789
asVBrewDog Punk IPA Can 
p790
(lp791
F5.4
aF7.0
aI1
aI0
aVhttps://molloys.ie/media/catalog/product/cache/1/image/500x500/9df78eab33525d08d6e5fb8d27136e95/b/r/brewdog_punk_ipa_330ml_can_thumbnail.png
p792
asVO'HARAS IRISH PALE ALE 
p793
(lp794
F3.9
aF41.0
aI1
aI0
aVhttp://res.cloudinary.com/ratebeer/image/upload/w_250,c_limit/beer_126380.jpg
p795
asVBirrifico Verdi Black Jack
p796
(lp797
F9.8
aF7.0
aI1
aI0
aVhttp://res.cloudinary.com/ratebeer/image/upload/w_120,c_limit/beer_124259.jpg
p798
asVWhite Gypsy Doppelbock 
p799
(lp800
F7.4
aF7.0
aI1
aI0
aVhttp://www.martinsofflicence.ie/cms/images/260x510_p1371558542122_23463666.jpg
p801
as.