(lp0
(lp1
S'185.7.184.174'
p2
aS'Leinster'
p3
aS'[5.6, 43, 0, 0]'
p4
aa(lp5
S'185.7.144.134'
p6
ag3
aS'[3.2, 3, 4, 4]'
p7
aa(lp8
S'325.7.184.234'
p9
aS'Ulster'
p10
aS'[12.5, 80, 3, 1]'
p11
aa(lp12
S'345.7.184.174'
p13
ag10
aS'[4.5, 42, 22, 0]'
p14
aa(lp15
S'435.7.184.174'
p16
aS'Munster'
p17
aS'[3.1, 4, 3, 0]'
p18
aa(lp19
S'485.7.184.174'
p20
ag17
aS'[2.5, 25, 40, 3]'
p21
aa(lp22
S'231.7.184.174'
p23
aS'Connaught'
p24
aS'[7.8, 89, 32, 4]'
p25
aa(lp26
S'285.7.184.174'
p27
ag24
aS'[9.6, 46, 13, 5]'
p28
aa.