(lp0
(lp1
(lp2
S'185.7.184.174'
p3
aS'Leinster'
p4
aS'[5.6, 43, 0, 0]'
p5
aa(lp6
S'185.7.144.134'
p7
ag4
aS'[3.2, 3, 4, 4]'
p8
aa(lp9
S'325.7.184.234'
p10
aS'Ulster'
p11
aS'[12.5, 80, 3, 1]'
p12
aa(lp13
S'345.7.184.174'
p14
ag11
aS'[4.5, 42, 22, 0]'
p15
aa(lp16
S'435.7.184.174'
p17
aS'Munster'
p18
aS'[3.1, 4, 3, 0]'
p19
aa(lp20
S'485.7.184.174'
p21
ag18
aS'[2.5, 25, 40, 3]'
p22
aa(lp23
S'231.7.184.174'
p24
aS'Connaught'
p25
aS'[7.8, 89, 32, 4]'
p26
aa(lp27
S'285.7.184.174'
p28
ag25
aS'[9.6, 46, 13, 5]'
p29
aaa(dp30
V3 Fonteinen Oude Geuze
p31
(lp32
F6.0
aF7.0
aI1
aI0
aVhttp://res.cloudinary.com/ratebeer/image/upload/w_250,c_limit/beer_311168.jpg
p33
asVKNOCKMEALDOWN PORTER 
p34
(lp35
F4.8
aF7.0
aI32
aI0
aVhttp://res.cloudinary.com/ratebeer/image/upload/w_250,c_limit/beer_160562.jpg
p36
asVSka Brewing Decadent IPA Can
p37
(lp38
F10.0
aF32.0
aI8
aI0
aVhttp://res.cloudinary.com/ratebeer/image/upload/w_250,c_limit/beer_43088.jpg
p39
asVLa Trappe Tripel 
p40
(lp41
F8.0
aF7.0
aI37
aI0
aVhttp://res.cloudinary.com/ratebeer/image/upload/w_250,c_limit/beer_4564.jpg
p42
asVBoon Oude Geuze Black Label
p43
(lp44
F6.0
aF7.0
aI37
aI6
aVhttp://res.cloudinary.com/ratebeer/image/upload/w_250,c_limit/beer_367485.jpg
p45
asVBlacks Kinsale Equinox
p46
(lp47
F5.5
aF100.0
aI1
aI0
aVhttps://www.irelandcraftbeers.com/uploads/images/products/thumb_blacks-of-kinsale-rocket-ship-ipa_20151118203701.png
p48
asVO'HARAS IRISH RED 
p49
(lp50
F2.9
aF1.0
aI37
aI0
aVhttp://res.cloudinary.com/ratebeer/image/upload/w_250,c_limit/beer_44140.jpg
p51
asVLittle Creatures Pale Ale 330M
p52
(lp53
F3.1
aF40.0
aI1
aI0
aVhttp://res.cloudinary.com/ratebeer/image/upload/w_250,c_limit/beer_7658.jpg
p54
asVAnchor Christmas 2015 
p55
(lp56
F5.3
aF7.0
aI1
aI0
aVhttps://2fdltvvn8wp2rn64ywgk8o17-wpengine.netdna-ssl.com/wp-content/uploads/2015/01/anchor-christmas-ale-2014.png
p57
asVSiren Maiden 
p58
(lp59
F10.8
aF7.0
aI1
aI0
aVhttp://media.alesbymail.co.uk/catalog/product/cache/1/image/9df78eab33525d08d6e5fb8d27136e95/s/i/siren---maiden-2014.jpg
p60
asVBrewDog Elvis Juice 
p61
(lp62
F6.3
aF7.0
aI1
aI0
aVhttps://img.saveur-biere.com/img/p/9412-22248-v4_product_img.jpg
p63
asVOud Beersel Framboise 
p64
(lp65
F3.6
aF7.0
aI1
aI3
aVhttp://res.cloudinary.com/ratebeer/image/upload/w_250,c_limit/beer_49975.jpg
p66
asVPorterhouse Celebration Stout
p67
(lp68
F6.8
aF7.0
aI1
aI0
aVhttp://res.cloudinary.com/ratebeer/image/upload/w_250,c_limit/beer_145625.jpg
p69
asVKrombacher Pils Can 
p70
(lp71
F2.8
aF33.0
aI1
aI0
aVhttp://res.cloudinary.com/ratebeer/image/upload/w_250,c_limit/beer_3370.jpg
p72
asVSierra Nevada North Harvest
p73
(lp74
F6.7
aF100.0
aI1
aI0
aVhttp://res.cloudinary.com/ratebeer/image/upload/w_250,c_limit/beer_131958.jpg
p75
asVOdells Fernet Aged Porter
p76
(lp77
F9.4
aF7.0
aI1
aI0
aVhttp://www.beersofeurope.co.uk/media/catalog/product/cache/1/image/9df78eab33525d08d6e5fb8d27136e95/pimages/OdellFernetAgedPorter.jpg
p78
asVBrooklyn Blast Ale 
p79
(lp80
F7.7
aF38.0
aI1
aI0
aVhttp://res.cloudinary.com/ratebeer/image/upload/w_250,c_limit/beer_51334.jpg
p81
asVSamuel Adams Boston Lager
p82
(lp83
F2.6
aF31.0
aI1
aI0
aVhttp://res.cloudinary.com/ratebeer/image/upload/w_250,c_limit/beer_158.jpg
p84
asVBzat Kriekenlambiek Oud Beerse
p85
(lp86
F8.0
aF100.0
aI1
aI0
aVhttp://res.cloudinary.com/ratebeer/image/upload/w_250,c_limit/beer_184275.jpg
p87
asVBrooklyn Improved Old Fashione
p88
(lp89
F13.3
aF7.0
aI1
aI0
aVhttp://res.cloudinary.com/ratebeer/image/upload/w_250,c_limit/beer_398364.jpg
p90
asVStone Brewing Ruination IPA Ca
p91
(lp92
F7.1
aF47.0
aI1
aI0
aVhttp://res.cloudinary.com/ratebeer/image/upload/w_250,c_limit/beer_14709.jpg
p93
asVMOOSEHEAD 
p94
(lp95
F5.0
aF100.0
aI1
aI0
aVhttp://www.moosehead.de/files/photos/moosehead-de-goodyfood-klaus-kunze-moosehead-lager-large.png
p96
asVSierra Nevada Hoptimum 
p97
(lp98
F10.2
aF39.0
aI1
aI0
aVhttp://res.cloudinary.com/ratebeer/image/upload/w_250,c_limit/beer_117825.jpg
p99
asVWicklow Wolf IPA 
p100
(lp101
F6.4
aF42.0
aI1
aI0
aVhttp://res.cloudinary.com/ratebeer/image/upload/w_250,c_limit/beer_303283.jpg
p102
asVCURIM 
p103
(lp104
F2.7
aF30.0
aI1
aI0
aVhttp://res.cloudinary.com/ratebeer/image/upload/w_250,c_limit/beer_4941.jpg
p105
asVCamden Town IHL Barrel Aged 66
p106
(lp107
F7.3
aF28.0
aI1
aI0
aVhttp://res.cloudinary.com/ratebeer/image/upload/w_250,c_limit/beer_316205.jpg
p108
asVRascal's Wunderbar IPA
p109
(lp110
F5.7
aF32.0
aI1
aI0
aVhttp://www.martinsofflicence.ie/cms/images/260x510_p1469807501849_wunderbar_render.jpg
p111
asVSt. Bernardus Tripel 
p112
(lp113
F6.7
aF4.0
aI1
aI0
aVhttp://res.cloudinary.com/ratebeer/image/upload/w_250,c_limit/beer_2528.jpg
p114
asVChapeau Cuvee Oude Geuze 
p115
(lp116
F3.5
aF6.0
aI1
aI7
aVhttp://res.cloudinary.com/ratebeer/image/upload/w_250,c_limit/beer_6241.jpg
p117
asVO'Hara's Double IPA 
p118
(lp119
F5.6
aF31.0
aI1
aI0
aVhttp://res.cloudinary.com/ratebeer/image/upload/w_250,c_limit/beer_204890.jpg
p120
asVLagunitas Equinox 
p121
(lp122
F7.5
aF35.0
aI1
aI0
aVhttps://s-media-cache-ak0.pinimg.com/originals/14/fb/bd/14fbbd3dca6239a9b85ad1b6aaef6977.png
p123
asVLa Trappe Blonde 
p124
(lp125
F5.8
aF7.0
aI1
aI0
aVhttp://res.cloudinary.com/ratebeer/image/upload/w_250,c_limit/beer_10380.jpg
p126
asVBoon Framboise 
p127
(lp128
F5.0
aF7.0
aI1
aI3
aVhttp://res.cloudinary.com/ratebeer/image/upload/w_250,c_limit/beer_4430.jpg
p129
asVOscar Blues Pinner Throwback I
p130
(lp131
F2.2
aF44.0
aI1
aI0
aVhttp://res.cloudinary.com/ratebeer/image/upload/w_250,c_limit/beer_305178.jpg
p132
asVBrewdog Hardcore IPA
p133
(lp134
F9.0
aF7.0
aI1
aI0
aVhttp://res.cloudinary.com/ratebeer/image/upload/w_250,c_limit/beer_118721.jpg
p135
asVBzat Lambiek Oud Beersel 
p136
(lp137
F6.8
aF29.0
aI1
aI7
aVhttp://res.cloudinary.com/ratebeer/image/upload/w_250,c_limit/beer_23561.jpg
p138
asVSierra Nevada Barrel Aged Bigf
p139
(lp140
F13.1
aF7.0
aI1
aI0
aVhttp://res.cloudinary.com/ratebeer/image/upload/w_250,c_limit/beer_65123.jpg
p141
asVDungarvan Mine Head 
p142
(lp143
F5.5
aF100.0
aI1
aI0
aVhttp://dungarvanbrewingcompany.com/wp-content/uploads/2012/10/mine_big.png
p144
asVLeft Hand Wake Up Dead 
p145
(lp146
F9.5
aF7.0
aI1
aI0
aVhttp://lefthandbrewing.com/wp/wp-content/uploads/2013/06/wakeupdead1.png
p147
asVWEIHENSTEPHANER DUNKEL 
p148
(lp149
F3.9
aF7.0
aI1
aI0
aVhttp://www.beergonzo.co.uk/pictures/1b972403-ad81-4521-875c-f22b5f098063.jpg
p150
asVSiren White Tips 
p151
(lp152
F2.3
aF49.0
aI1
aI0
aVhttps://www.eebria.com/media/products/524/20150430145251082/450x450.jpg
p153
asVFourpure Oatmeal Stout
p154
(lp155
F4.9
aF7.0
aI1
aI0
aVhttps://www.beermerchants.com/media/catalog/product/f/o/four_pure_oatmeal_stout.png
p156
asVBrewDog JackHammer Can 
p157
(lp158
F6.3
aF57.0
aI1
aI0
aVhttp://res.cloudinary.com/ratebeer/image/upload/w_250,c_limit/beer_178585.jpg
p159
asVFounders Devil Dancer 
p160
(lp161
F11.6
aF32.0
aI1
aI0
aVhttp://res.cloudinary.com/ratebeer/image/upload/w_250,c_limit/beer_34518.jpg
p162
asVMikkeller Raspberry Trippelboc
p163
(lp164
F13.0
aF7.0
aI1
aI0
aVhttp://res.cloudinary.com/ratebeer/image/upload/w_250,c_limit/beer_317889.jpg
p165
asVThird Circle Samhradh 
p166
(lp167
F4.4
aF5.0
aI1
aI0
aVhttp://media.istockphoto.com/photos/beer-bottle-picture-id175533358?k=6&m=175533358&s=170667a&w=0&h=de2hI2j7Ie8LiNCvkRlS-wwxhChsggEDoX9SDagZnAY=
p168
asVBay Ale Irish Red Ale 
p169
(lp170
F4.3
aF29.0
aI1
aI0
aVhttp://noreast.ie/Content/Images/Beers/galwaybay_bay_ale.jpg
p171
asVCHIMAY BLUE GRANDE RES
p172
(lp173
F8.8
aF7.0
aI1
aI0
aVhttp://res.cloudinary.com/ratebeer/image/upload/w_250,c_limit/beer_53.jpg
p174
asVMikkeller Spontan Cherry 
p175
(lp176
F6.6
aF7.0
aI1
aI4
aVhttp://res.cloudinary.com/ratebeer/image/upload/w_250,c_limit/beer_205607.jpg
p177
asVChimay White
p178
(lp179
F8.0
aF100.0
aI1
aI0
aVhttp://res.cloudinary.com/ratebeer/image/upload/w_250,c_limit/beer_52.jpg
p180
asVKinnegar Brewing Yannaroddy
p181
(lp182
F4.4
aF7.0
aI1
aI0
aVhttp://www.martinsofflicence.ie/cms/images/737x737_p1395749582350_kinnegar_yannaroddy_porter..jpg
p183
asVAnchor Porter 
p184
(lp185
F4.6
aF7.0
aI1
aI0
aVhttp://res.cloudinary.com/ratebeer/image/upload/w_250,c_limit/beer_48.jpg
p186
asVLeft Hand Smokejumper 
p187
(lp188
F7.4
aF7.0
aI1
aI0
aVhttp://res.cloudinary.com/ratebeer/image/upload/w_250,c_limit/beer_65635.jpg
p189
asVSchneider Tap X Maries Rendezv
p190
(lp191
F8.4
aF7.0
aI1
aI0
aVhttp://res.cloudinary.com/ratebeer/image/upload/w_250,c_limit/beer_398355.jpg
p192
asVBrewDog Cocoa Psycho
p193
(lp194
F10.0
aF7.0
aI1
aI0
aVhttp://www.worldbeerawards.com/media/bottles/23476-120x400.jpg
p195
asVBlackJack Drogheda Cream 
p196
(lp197
F4.6
aF7.0
aI1
aI0
aVhttp://www.martinsofflicence.ie/cms/images/260x510_p1425993781860_jack-codys-black-jack,-drogheda-cream-stout-3.jpg
p198
asVBrewDog 5AM Saint 
p199
(lp200
F4.8
aF7.0
aI1
aI0
aVhttp://beerstore.com.au/wp-content/uploads/2015/10/brewdog-5am-saint-beer-online-1378101233.jpg
p201
asVAsahi 
p202
(lp203
F5.0
aF100.0
aI1
aI0
aVhttp://www.odonovansofflicence.com/wp-content/uploads/2016/03/BEBTASAH5001.jpeg
p204
asVLindemans Cuvee Rene Oude Gueze
p205
(lp206
F5.8
aF7.0
aI1
aI0
aVhttp://www.merchantduvin.com/images/i-lindemans-cuvee-rene-gueuze-lambic.png
p207
asVThornbridge HALL Double Scotch
p208
(lp209
F7.7
aF7.0
aI1
aI0
aVhttp://www.beergonzo.co.uk/pictures/3a90fb6b-b4a2-484c-98d8-bb7b1a0d9c9a.jpg
p210
asVBREWDOG PUNK IPA 
p211
(lp212
F5.4
aF7.0
aI1
aI0
aVhttps://www.shoppersvineyard.com/images/labels/brewdog-punk-ipa.gif
p213
asVFounders Centennial IPA 
p214
(lp215
F5.4
aF36.0
aI1
aI0
aVhttp://res.cloudinary.com/ratebeer/image/upload/w_250,c_limit/beer_3168.jpg
p216
asVBoon Geuze 
p217
(lp218
F4.6
aF29.0
aI1
aI6
aVhttp://res.cloudinary.com/ratebeer/image/upload/w_250,c_limit/beer_4631.jpg
p219
asVOdells Footprint 
p220
(lp221
F9.4
aF7.0
aI1
aI0
aVhttp://beerstreetjournal.com/wp-content/uploads/Screen-Shot-2012-01-31-at-12.09.31-PM.png
p222
asVAnchor IPA 
p223
(lp224
F6.5
aF100.0
aI1
aI0
aVhttps://cdn.beeradvocate.com/im/beers/112128.jpg
p225
asVLagunitas IPA 
p226
(lp227
F4.5
aF40.0
aI1
aI0
aVhttp://res.cloudinary.com/ratebeer/image/upload/w_250,c_limit/beer_6887.jpg
p228
asVCHIMAY RED PREMIERE 
p229
(lp230
F6.1
aF7.0
aI1
aI0
aVhttp://res.cloudinary.com/ratebeer/image/upload/w_250,c_limit/beer_51.jpg
p231
asVBrooklyn Monster Ale 
p232
(lp233
F11.1
aF7.0
aI1
aI0
aVhttp://brooklynbrewery.com/system/beers/11_shelf_monsterale_original.png?1421879941
p234
asVLindemans Spontanbasil 750
p235
(lp236
F4.6
aF29.0
aI1
aI4
aVhttp://res.cloudinary.com/ratebeer/image/upload/w_250,c_limit/beer_331545.jpg
p237
asVStone Brewing Go To IPA Can 33
p238
(lp239
F3.1
aF68.0
aI1
aI0
aVhttp://res.cloudinary.com/ratebeer/image/upload/w_250,c_limit/beer_253833.jpg
p240
asVBrewDog Black Eyed King Imp 33
p241
(lp242
F13.5
aF7.0
aI1
aI0
aVhttp://res.cloudinary.com/ratebeer/image/upload/w_250,c_limit/beer_369326.jpg
p243
asVBoon Kreik Mariage Parfai
p244
(lp245
F6.7
aF7.0
aI1
aI5
aVhttp://res.cloudinary.com/ratebeer/image/upload/w_250,c_limit/beer_6924.jpg
p246
asVCHIMAY WHITE CINQ CENTS 
p247
(lp248
F6.8
aF6.0
aI1
aI0
aVhttp://res.cloudinary.com/ratebeer/image/upload/w_250,c_limit/beer_52.jpg
p249
asVThornbridge HALL Sour Brown 50
p250
(lp251
F7.1
aF7.0
aI1
aI5
aVhttp://res.cloudinary.com/ratebeer/image/upload/w_250,c_limit/beer_97342.jpg
p252
asVBrooklyn Hand 
p253
(lp254
F14.3
aF7.0
aI1
aI0
aVhttp://brooklynbrewery.com/system/beers/49_shelf_HandSeal-750ml-Website-LR_original.png?1442434934
p255
asVBrooklyn Local 2 
p256
(lp257
F8.7
aF30.0
aI1
aI0
aVhttp://res.cloudinary.com/ratebeer/image/upload/w_250,c_limit/beer_96545.jpg
p258
asVWEIHENSTEPHANER KRISTALL 
p259
(lp260
F2.2
aF7.0
aI1
aI0
aVhttps://m.danmurphys.com.au/media/DM/Product/750x2000/904075_0_9999_v1_m56577569839962019.jpg
p261
asVLa Trappe Dubbel 
p262
(lp263
F6.8
aF7.0
aI1
aI0
aVhttp://res.cloudinary.com/ratebeer/image/upload/w_250,c_limit/beer_4563.jpg
p264
asVBREWDOG TOKYO 
p265
(lp266
F17.2
aF7.0
aI1
aI0
aVhttp://res.cloudinary.com/ratebeer/image/upload/w_250,c_limit/beer_107203.jpg
p267
asVSTAROPRAMEN 
p268
(lp269
F4.8
aF7.0
aI1
aI0
aVhttp://m.beerforum.co.kr/files/attach/images/1434/163/115/05e8aebc5c738d97f642cc960bb94795.jpg
p270
asVFounders Mango Magnifico 
p271
(lp272
F9.8
aF7.0
aI1
aI0
aVhttp://res.cloudinary.com/ratebeer/image/upload/w_250,c_limit/beer_219170.jpg
p273
asVBoon Kriek 
p274
(lp275
F0.8
aF7.0
aI1
aI2
aVhttp://res.cloudinary.com/ratebeer/image/upload/w_250,c_limit/beer_4505.jpg
p276
asVOud Beersel Beersalis Tripel 7
p277
(lp278
F10.3
aF7.0
aI1
aI0
aVhttp://res.cloudinary.com/ratebeer/image/upload/w_250,c_limit/beer_53967.jpg
p279
asVMetalman Heatsink 
p280
(lp281
F4.5
aF7.0
aI1
aI0
aVhttps://www.obrienswine.ie/media/catalog/product/1/5/15B169-Metalman-Heat-Sink-Porter-33cl-Can.png
p282
asVVICTORY STORM KING 
p283
(lp284
F9.1
aF2.0
aI1
aI0
aVhttp://res.cloudinary.com/ratebeer/image/upload/w_250,c_limit/beer_626.jpg
p285
asVFourpure Juicebox Citrus IPA 5
p286
(lp287
F4.4
aF54.0
aI1
aI0
aVhttp://www.martinsofflicence.ie/cms/images/260x510_p1471345856900_fourpure_juicebox_citrus_ipa_can.jpg
p288
asVCHIMAY BLUE 
p289
(lp290
F8.8
aF7.0
aI1
aI0
aVhttp://res.cloudinary.com/ratebeer/image/upload/w_250,c_limit/beer_53.jpg
p291
asVPORTERHOUSE OYSTER STOUT
p292
(lp293
F4.4
aF7.0
aI1
aI0
aVhttp://res.cloudinary.com/ratebeer/image/upload/w_250,c_limit/beer_11379.jpg
p294
asVWEIHENSTEPHANER VITUS 
p295
(lp296
F6.0
aF7.0
aI1
aI0
aVhttp://www.worldbeerawards.com/media/bottles/5382-120x400.jpg
p297
asVFounders Imperial Stout 
p298
(lp299
F10.6
aF7.0
aI1
aI0
aVhttp://res.cloudinary.com/ratebeer/image/upload/w_250,c_limit/beer_5933.jpg
p300
asVSierra Nevada Porter 
p301
(lp302
F4.4
aF7.0
aI1
aI0
aVhttp://res.cloudinary.com/ratebeer/image/upload/w_250,c_limit/beer_366.jpg
p303
asVBrewDog Nanny State 
p304
(lp305
F0.3
aF7.0
aI1
aI0
aVhttp://www.beersofeurope.co.uk/media/catalog/product/cache/1/image/9df78eab33525d08d6e5fb8d27136e95/pimages/BrewdogNannyState.jpg
p306
asVWhite Gypsy Russian Impy 
p307
(lp308
F6.8
aF7.0
aI1
aI0
aVhttp://media.istockphoto.com/photos/beer-bottle-picture-id175533358?k=6&m=175533358&s=170667a&w=0&h=de2hI2j7Ie8LiNCvkRlS-wwxhChsggEDoX9SDagZnAY=
p309
asVCorona Light
p310
(lp311
F4.6
aF100.0
aI1
aI0
aVhttp://rsvpmagazine.ie/wp-content/uploads/2013/06/Corona-Light.jpg
p312
asVFounders Centennial IPA Can
p313
(lp314
F5.4
aF36.0
aI1
aI0
aVhttp://res.cloudinary.com/ratebeer/image/upload/w_250,c_limit/beer_3168.jpg
p315
asVPeroni Nastro Azzurro 
p316
(lp317
F3.5
aF37.0
aI1
aI0
aVhttp://res.cloudinary.com/ratebeer/image/upload/w_250,c_limit/beer_3029.jpg
p318
asVOscar Blues Old Chub Can 355M
p319
(lp320
F7.1
aF7.0
aI1
aI0
aVhttp://res.cloudinary.com/ratebeer/image/upload/w_250,c_limit/beer_11579.jpg
p321
asVWeihenstephaner Non Alchol 500
p322
(lp323
F-1.2
aF7.0
aI1
aI0
aVhttp://res.cloudinary.com/ratebeer/image/upload/w_250,c_limit/beer_6038.jpg
p324
asVSiren Vanilla Weisse 
p325
(lp326
F2.8
aF7.0
aI1
aI3
aVhttp://www.beergonzo.co.uk/pictures/c42af04e-4f47-493e-8ff3-1d5522dad993.jpg
p327
asVDupont Avec Bons Voeux 
p328
(lp329
F8.7
aF5.0
aI1
aI0
aVhttp://res.cloudinary.com/ratebeer/image/upload/w_250,c_limit/beer_11047.jpg
p330
asVOdells Trellis Garden Al 
p331
(lp332
F8.3
aF35.0
aI1
aI0
aVhttp://res.cloudinary.com/ratebeer/image/upload/w_250,c_limit/beer_274475.jpg
p333
asVMikkeller Raspberry Quadrupel
p334
(lp335
F12.9
aF7.0
aI1
aI0
aVhttp://res.cloudinary.com/ratebeer/image/upload/w_250,c_limit/beer_317889.jpg
p336
asVSka Brewing Modus Hoperandi Ca
p337
(lp338
F6.2
aF41.0
aI1
aI0
aVhttp://res.cloudinary.com/ratebeer/image/upload/w_250,c_limit/beer_99487.jpg
p339
asVAnchor Brekles Brown 
p340
(lp341
F4.3
aF4.0
aI1
aI0
aVhttp://res.cloudinary.com/ratebeer/image/upload/w_250,c_limit/beer_139388.jpg
p342
asVLindemans Cuvee Rene Kriek 750
p343
(lp344
F5.0
aF0.0
aI1
aI6
aVhttp://res.cloudinary.com/ratebeer/image/upload/w_250,c_limit/beer_72448.jpg
p345
asVLagunitas Little Sumpin' 
p346
(lp347
F5.6
aF35.0
aI1
aI0
aVhttp://res.cloudinary.com/ratebeer/image/upload/w_250,c_limit/beer_103006.jpg
p348
asVTrouble Brewing Dark Arts Port
p349
(lp350
F3.8
aF7.0
aI1
aI0
aVhttp://res.cloudinary.com/ratebeer/image/upload/w_250,c_limit/beer_140325.jpg
p351
asVRochefort 10
p352
(lp353
F11.3
aF100.0
aI1
aI0
aVhttp://res.cloudinary.com/ratebeer/image/upload/w_250,c_limit/beer_2360.jpg
p354
asVWicklow Wolf Black Perle 
p355
(lp356
F4.7
aF7.0
aI1
aI0
aVhttp://www.fourcorners.ie/perch/resources/products/black-perle-porterpw-2.jpg
p357
asVOdells Drumroll APA Can 
p358
(lp359
F3.5
aF49.0
aI1
aI0
aVhttp://res.cloudinary.com/ratebeer/image/upload/w_250,c_limit/beer_424542.jpg
p360
asV3 Fonteinen Intense Red 
p361
(lp362
F5.8
aF7.0
aI1
aI0
aVhttps://www.beergium.com/3339-big_default/3-fonteinen-intense-red-oude-kriek-75cl.jpg
p363
asVMikkeller Black Imperial 
p364
(lp365
F15.1
aF100.0
aI1
aI0
aVhttp://res.cloudinary.com/ratebeer/image/upload/w_250,c_limit/beer_83833.jpg
p366
asVLindemans Blossom Geuze 
p367
(lp368
F4.8
aF30.0
aI1
aI5
aVhttps://www.beergium.com/3454-thickbox_default/lindemans-blossom-gueuze-75cl.jpg
p369
asV3 Fonteinen Oude Kreik 
p370
(lp371
F6.3
aF7.0
aI1
aI0
aVhttp://res.cloudinary.com/ratebeer/image/upload/w_250,c_limit/beer_311175.jpg
p372
asVWicklow Wolf Kentucky Com
p373
(lp374
F4.8
aF7.0
aI1
aI1
aVhttps://www.obrienswine.ie/media/catalog/product/1/4/14B123-Wicklow-Wolf-IPA-50cl-Btl.png
p375
asVBirrifico L'Ultima Luna 
p376
(lp377
F14.4
aF7.0
aI1
aI0
aVhttp://lapobbia.com/wp-content/uploads/2013/10/lultima-luna.png
p378
asVSierra Nevada Torpedo
p379
(lp380
F7.2
aF100.0
aI1
aI0
aVhttp://res.cloudinary.com/ratebeer/image/upload/w_250,c_limit/beer_59261.jpg
p381
asVFourpure Session IPA
p382
(lp383
F1.3
aF49.0
aI1
aI0
aVhttps://www.beermerchants.com/media/catalog/product/f/o/four_pure_session_ipa.png
p384
asVOdells Runoff Red Ale 
p385
(lp386
F4.4
aF33.0
aI1
aI0
aVhttp://thefullpint.com/wp-content/uploads/2013/12/odell-runoff-red-ipa-bottle.jpg
p387
asVWEIHENSTEPHANER HEFE 
p388
(lp389
F2.2
aF7.0
aI1
aI0
aVhttp://res.cloudinary.com/ratebeer/image/upload/w_250,c_limit/beer_1156.jpg
p390
asVLa Trappe Quadrupel 
p391
(lp392
F10.0
aF7.0
aI1
aI0
aVhttp://res.cloudinary.com/ratebeer/image/upload/w_250,c_limit/beer_4565.jpg
p393
asVSUNBURNT RED ALE 
p394
(lp395
F3.7
aF6.0
aI1
aI0
aVhttp://res.cloudinary.com/ratebeer/image/upload/w_250,c_limit/beer_154054.jpg
p396
asVOdells Friek 
p397
(lp398
F8.4
aF7.0
aI1
aI5
aVhttp://res.cloudinary.com/ratebeer/image/upload/w_250,c_limit/beer_113162.jpg
p399
asVMaisel 
p400
(lp401
F6.9
aF7.0
aI1
aI0
aVhttp://res.cloudinary.com/ratebeer/image/upload/w_250,c_limit/beer_185853.jpg
p402
asVSierra Nevada Ruthless Ry
p403
(lp404
F5.8
aF40.0
aI1
aI0
aVhttp://res.cloudinary.com/ratebeer/image/upload/w_250,c_limit/beer_159987.jpg
p405
asVSpencer Trappist Ale 
p406
(lp407
F5.2
aF0.0
aI1
aI0
aVhttp://res.cloudinary.com/ratebeer/image/upload/w_250,c_limit/beer_241569.jpg
p408
asVFounders reDANKulous 
p409
(lp410
F9.3
aF7.0
aI1
aI0
aVhttp://media.istockphoto.com/photos/beer-bottle-picture-id175533358?k=6&m=175533358&s=170667a&w=0&h=de2hI2j7Ie8LiNCvkRlS-wwxhChsggEDoX9SDagZnAY=
p411
asVOBrother The Sinner IPA 
p412
(lp413
F6.1
aF38.0
aI1
aI0
aVhttps://cdn.shopify.com/s/files/1/0286/4636/products/15B178-O-Brother-Brewing-Sinner-IPA-50cl-Bottle.png?v=1480078363
p414
asVFourpure Pale Ale Can 
p415
(lp416
F5.0
aF100.0
aI1
aI0
aVhttp://www.pivovarorders.co.uk/user/products/large/fourpure%20american%20pale%20ale%20CAN.jpg
p417
asVcks Kinsale 'KPA' 
p418
(lp419
F4.0
aF47.0
aI1
aI0
aVhttp://res.cloudinary.com/ratebeer/image/upload/w_250,c_limit/beer_217458.jpg
p420
asVSierra Nevada Pale Ale Can 473
p421
(lp422
F2.1
aF42.0
aI1
aI0
aVhttp://res.cloudinary.com/ratebeer/image/upload/w_250,c_limit/beer_365.jpg
p423
asVBrewDog Kingpin Lager
p424
(lp425
F2.9
aF29.0
aI1
aI0
aVhttp://www.beersofeurope.co.uk/media/catalog/product/cache/1/image/9df78eab33525d08d6e5fb8d27136e95/pimages/BrewdogKingpin.jpg
p426
asVAnchor Old Foghorn 
p427
(lp428
F9.5
aF7.0
aI1
aI0
aVhttp://res.cloudinary.com/ratebeer/image/upload/w_250,c_limit/beer_4728.jpg
p429
asVSchorsch Bock ICE 30 
p430
(lp431
F29.8
aF7.0
aI1
aI0
aVhttp://biershop.bierpost.com/Media/Thumbs/0003/0003527-schorschbock-ice-30-mit-30-033l-300.gif
p432
asVRascal's Yankee White IPA 
p433
(lp434
F4.8
aF39.0
aI1
aI0
aVhttp://www.martinsofflicence.ie/cms/images/260x510_p1455027156120_rascals_yankee_white_ipa.jpg
p435
asVDupont Biere De Miel Bio 
p436
(lp437
F6.7
aF0.0
aI1
aI0
aVhttp://res.cloudinary.com/ratebeer/image/upload/w_250,c_limit/beer_12383.jpg
p438
asVO'HARAS STOUT 
p439
(lp440
F4.1
aF100.0
aI1
aI0
aVhttp://res.cloudinary.com/ratebeer/image/upload/w_250,c_limit/beer_5830.jpg
p441
asVWhite Hag IPA 
p442
(lp443
F7.2
aF100.0
aI1
aI0
aVhttps://cdn.shopify.com/s/files/1/0286/4636/products/white_hag.jpg?v=1422444987
p444
asVSierra Nevada Hop Hunter 355
p445
(lp446
F6.2
aF100.0
aI1
aI0
aVhttp://res.cloudinary.com/ratebeer/image/upload/w_250,c_limit/beer_250957.jpg
p447
asVBrooklyn Silver Anniversary Lager
p448
(lp449
F8.8
aF7.0
aI1
aI0
aVhttp://res.cloudinary.com/ratebeer/image/upload/w_250,c_limit/beer_204873.jpg
p450
asVBrewDog Dead Pony Club
p451
(lp452
F3.8
aF100.0
aI1
aI0
aVhttp://res.cloudinary.com/ratebeer/image/upload/w_250,c_limit/beer_172207.jpg
p453
asVBrooklyn Lager 
p454
(lp455
F3.1
aF32.0
aI1
aI0
aVhttp://res.cloudinary.com/ratebeer/image/upload/w_250,c_limit/beer_528.jpg
p456
asVStone Barrel Brewing Boom IPA
p457
(lp458
F4.8
aF33.0
aI1
aI0
aVhttp://www.martinsofflicence.ie/cms/images/260x510_p1391086297922_stone-barrel-boom-session-ipa-2.jpg
p459
asVSierra Nevada Nooner Can
p460
(lp461
F2.0
aF41.0
aI1
aI0
aVhttp://res.cloudinary.com/ratebeer/image/upload/w_250,c_limit/beer_307541.jpg
p462
asVCOPPER COAST RED ALE 
p463
(lp464
F4.1
aF7.0
aI1
aI0
aVhttp://dungarvanbrewingcompany.com/wp-content/uploads/2012/10/copper_big1.png
p465
asVBudvar
p466
(lp467
F5.0
aF100.0
aI1
aI0
aVhttp://res.cloudinary.com/ratebeer/image/upload/w_250,c_limit/beer_1316.jpg
p468
asVPuck Pilsner 
p469
(lp470
F4.4
aF0.0
aI1
aI0
aVhttps://www.obrienswine.ie/media/catalog/product/1/5/15B083-Jack-Cody_s-Puck-Pilsner-50cl-Bottle.png
p471
asVOBrother The Fixer Red Ale
p472
(lp473
F5.4
aF36.0
aI1
aI0
aVhttp://www.martinsofflicence.ie/cms/images/260x510_p1472032953577_o-brother-brewing-fixer-amber-ale.jpg
p474
asVFourpure Skyliner Wheat Summer
p475
(lp476
F3.1
aF43.0
aI1
aI0
aVhttps://assets.londonist.com/uploads/2016/05/i730/four.jpg
p477
asVCOOPERS SPK. ALE 
p478
(lp479
F5.8
aF100.0
aI1
aI0
aVhttp://mrliquor.com.au/ma4/images/stories/virtuemart/product/COOPERS_SPK_ALE__51103402ae61d.jpg
p480
asVhenstephaner Original Helle
p481
(lp482
F1.5
aF28.0
aI1
aI0
aVhttp://cdn6.bigcommerce.com/s-fuwlhuh/products/357/images/619/Weihenstephaner_Original_Helles_new__37535.1437385886.490.588.png?c=2
p483
asVOud Beersel Schaarbeekse Oude
p484
(lp485
F6.8
aF1.0
aI1
aI7
aVhttp://res.cloudinary.com/ratebeer/image/upload/w_250,c_limit/beer_409938.jpg
p486
asVFounders Rubaeus Can 
p487
(lp488
F3.7
aF7.0
aI1
aI0
aVhttp://res.cloudinary.com/ratebeer/image/upload/w_250,c_limit/beer_46846.jpg
p489
asVChimay Doree Goud 
p490
(lp491
F3.3
aF4.0
aI1
aI0
aVhttp://res.cloudinary.com/ratebeer/image/upload/w_250,c_limit/beer_14228.jpg
p492
asVCHIMAY RED
p493
(lp494
F6.1
aF7.0
aI1
aI0
aVhttp://res.cloudinary.com/ratebeer/image/upload/w_250,c_limit/beer_51.jpg
p495
asVAnchor Christmas 2015  
p496
(lp497
F5.3
aF7.0
aI1
aI0
aVhttps://2fdltvvn8wp2rn64ywgk8o17-wpengine.netdna-ssl.com/wp-content/uploads/2015/01/anchor-christmas-ale-2014.png
p498
asVSt. Bernardus Abt 12 
p499
(lp500
F10.4
aF32.0
aI1
aI0
aVhttp://res.cloudinary.com/ratebeer/image/upload/w_250,c_limit/beer_2530.jpg
p501
asVWicklow Wolf American Amber
p502
(lp503
F4.5
aF29.0
aI1
aI0
aVhttp://www.fourcorners.ie/perch/resources/products/american-amberpw-2.jpg
p504
asVBrooklyn Local 1
p505
(lp506
F8.8
aF7.0
aI1
aI0
aVhttp://www.omega-level.net/wp-content/uploads/2010/02/Brooklyn-Local-1.jpg
p507
asVLagunitas Wilco Tango Foxtrot
p508
(lp509
F6.9
aF8.0
aI1
aI0
aVhttp://res.cloudinary.com/ratebeer/image/upload/w_250,c_limit/beer_117140.jpg
p510
asVFounders Porter 
p511
(lp512
F5.5
aF7.0
aI1
aI0
aVhttp://res.cloudinary.com/ratebeer/image/upload/w_250,c_limit/beer_3173.jpg
p513
asVFounders KBS 2016 
p514
(lp515
F13.2
aF7.0
aI1
aI0
aVhttp://res.cloudinary.com/ratebeer/image/upload/w_250,c_limit/beer_40544.jpg
p516
asVFounders Dirty Bastard 
p517
(lp518
F8.7
aF7.0
aI1
aI0
aVhttp://res.cloudinary.com/ratebeer/image/upload/w_250,c_limit/beer_11498.jpg
p519
asVOud Beersel Green Walnut 
p520
(lp521
F5.3
aF6.0
aI1
aI6
aVhttp://res.cloudinary.com/ratebeer/image/upload/w_250,c_limit/beer_348368.jpg
p522
asVBeavertown 8 Ball
p523
(lp524
F6.0
aF7.0
aI1
aI0
aVhttp://www.cavedirect.com/img/db/product-large/beavertown-8-ball-cave-direct.jpg
p525
asVBrooklyn K is for Kriek
p526
(lp527
F9.8
aF7.0
aI1
aI3
aVhttp://www.fourcorners.ie/perch/resources/other/k-is-for-kriek-hr.png
p528
asVewDog JackHammer 
p529
(lp530
F6.3
aF57.0
aI1
aI0
aVhttp://res.cloudinary.com/ratebeer/image/upload/w_250,c_limit/beer_178585.jpg
p531
asVBrooklyn Lager
p532
(lp533
F5.2
aF100.0
aI1
aI0
aVhttp://res.cloudinary.com/ratebeer/image/upload/w_120,c_limit/beer_528.jpg
p534
asVBarefoot Bohemian Lager
p535
(lp536
F3.5
aF32.0
aI1
aI0
aVhttp://www.beersofeurope.co.uk/media/catalog/product/cache/1/image/9df78eab33525d08d6e5fb8d27136e95/pimages/EightdegreesBarefootBohemian.jpg
p537
asVLindemans Faro 
p538
(lp539
F3.9
aF7.0
aI1
aI4
aVhttp://res.cloudinary.com/ratebeer/image/upload/w_250,c_limit/beer_6376.jpg
p540
asVO'Haras Notorious Red IPA
p541
(lp542
F4.5
aF35.0
aI1
aI0
aVhttps://www.obrienswine.ie/media/catalog/product/1/6/16B030-O_Haras-Notorious-Red-IPA-50cl-Bottle.png
p543
asVBlacks Kinsale 'KPA' Can 
p544
(lp545
F4.0
aF47.0
aI1
aI0
aVhttp://res.cloudinary.com/ratebeer/image/upload/w_250,c_limit/beer_217458.jpg
p546
asVLagunitas Censored 
p547
(lp548
F4.9
aF5.0
aI1
aI0
aVhttp://res.cloudinary.com/ratebeer/image/upload/w_250,c_limit/beer_8829.jpg
p549
asVO'Hara's Imperial Stout 
p550
(lp551
F9.8
aF7.0
aI1
aI0
aVhttp://www.martinsofflicence.ie/cms/images/260x510_p1459254599946_oharas_imperial_stout_20th_anniversary.jpg
p552
asVBeavertown Smog Rocket Can 330
p553
(lp554
F3.8
aF7.0
aI1
aI0
aVhttps://www.beermerchants.com/media/catalog/product/cache/1/image/x400/17f82f742ffe127f42dca9de82fb58b1/b/e/beavertown_smog_rocket_2.png
p555
asVBrewDog Restorative Can 
p556
(lp557
F8.5
aF100.0
aI1
aI0
aVhttp://cdn2.bigcommerce.com/server2400/0294a/products/5215/images/5970/Brewdog_Restorative_Beverage__94811.1473857983.1280.1280.jpg?c=2
p558
asVLagunitas Brown Shugga 
p559
(lp560
F9.6
aF0.0
aI1
aI0
aVhttp://res.cloudinary.com/ratebeer/image/upload/w_250,c_limit/beer_8732.jpg
p561
asVPORTERHOUSE RED 
p562
(lp563
F3.3
aF7.0
aI1
aI0
aVhttp://res.cloudinary.com/ratebeer/image/upload/w_250,c_limit/beer_11376.jpg
p564
asVewDog Bourbon Baby 
p565
(lp566
F5.0
aF7.0
aI1
aI0
aVhttp://res.cloudinary.com/ratebeer/image/upload/w_250,c_limit/beer_252097.jpg
p567
asVWhite Gypsy Doppelbock 
p568
(lp569
F7.4
aF7.0
aI1
aI0
aVhttp://www.martinsofflicence.ie/cms/images/260x510_p1371558542122_23463666.jpg
p570
asVOscar Blues Dales Pale Ale
p571
(lp572
F4.7
aF37.0
aI1
aI0
aVhttp://res.cloudinary.com/ratebeer/image/upload/w_250,c_limit/beer_11576.jpg
p573
asVFounders Mosaic Promise 
p574
(lp575
F4.0
aF52.0
aI1
aI0
aVhttp://res.cloudinary.com/ratebeer/image/upload/w_250,c_limit/beer_226680.jpg
p576
asVFounders Sumatra Mountain Brow
p577
(lp578
F8.7
aF7.0
aI1
aI0
aVhttp://res.cloudinary.com/ratebeer/image/upload/w_250,c_limit/beer_135773.jpg
p579
asVSpaten Lager
p580
(lp581
F5.2
aF100.0
aI1
aI0
aVhttp://lakebeverage.com/wp-content/uploads/2015/03/Spaten-Premium-Lager.png
p582
asVCOOPERS PALE ALE 
p583
(lp584
F3.2
aF34.0
aI1
aI0
aVhttp://res.cloudinary.com/ratebeer/image/upload/w_250,c_limit/beer_4060.jpg
p585
asVBrooklyn Intensified Coffee Po
p586
(lp587
F11.8
aF100.0
aI1
aI0
aVhttps://decrescente.net/images/suppliers/brooklyn-brewery/brooklyn-intensified-coffee-porter/intensified-coffee-porter-bottle-lg.png
p588
asVOud Beersel Oude Kriek 
p589
(lp590
F5.8
aF3.0
aI1
aI6
aVhttp://res.cloudinary.com/ratebeer/image/upload/w_250,c_limit/beer_10908.jpg
p591
asVLagunitas Aunt Sally 
p592
(lp593
F3.4
aF40.0
aI1
aI4
aVhttps://lagunitas.com/u/img/beer-images/aunt-sally/Aunt-Sally-Lagunitas-12oz-Bottle.png
p594
asVBrewDog Ship Wreck 
p595
(lp596
F14.5
aF7.0
aI1
aI0
aVhttp://www.beersofeurope.co.uk/media/catalog/product/cache/1/image/9df78eab33525d08d6e5fb8d27136e95/pimages/BrewdogShipWreck.jpg
p597
asVOdells St. Lupulin
p598
(lp599
F3.9
aF48.0
aI1
aI0
aVhttp://www.martinsofflicence.ie/cms/images/260x510_p1472133158777_st_lupulin_extra_pale_ale_can.jpg
p600
asVBrooklyn East India Pale 
p601
(lp602
F5.2
aF35.0
aI1
aI0
aVhttp://res.cloudinary.com/ratebeer/image/upload/w_250,c_limit/beer_530.jpg
p603
asVOBrother The Chancer APA 
p604
(lp605
F5.3
aF38.0
aI1
aI0
aVhttps://www.obrienswine.ie/media/catalog/product/1/5/15B180-O-Brother-Brewing-Chancer-APA-50cl-Bottle.png
p606
asVBeavertown Black Betty C 
p607
(lp608
F6.2
aF34.0
aI1
aI0
aVhttp://res.cloudinary.com/ratebeer/image/upload/w_250,c_limit/beer_191161.jpg
p609
asVBuried At Sea Chocolate Milk Stout
p610
(lp611
F4.5
aF100.0
aI1
aI0
aVhttps://lh3.googleusercontent.com/ZmuTr5STboTbtjg-MktoJZl3YiXitvEQ1LrPAEtasW4xgevCdmzpFrDvD6-jkYF8-aQK-bbf9V_wtpb-0K95_UY=s350
p612
asVStone Arrogant Bastard
p613
(lp614
F7.2
aF100.0
aI1
aI0
aVhttp://stonesalesmaterials.com/wp-content/uploads/2014/09/2014_BourbonABA_bottle_Web.png
p615
asVSierra Nevada Pale Ale Can 355
p616
(lp617
F2.1
aF42.0
aI1
aI0
aVhttp://res.cloudinary.com/ratebeer/image/upload/w_250,c_limit/beer_365.jpg
p618
asVBrewDog Dead Pony Club 
p619
(lp620
F1.3
aF48.0
aI1
aI0
aVhttp://res.cloudinary.com/ratebeer/image/upload/w_250,c_limit/beer_172207.jpg
p621
asVBlacks Kinsale Black IPA 
p622
(lp623
F4.9
aF31.0
aI1
aI0
aVhttp://res.cloudinary.com/ratebeer/image/upload/w_250,c_limit/beer_236468.jpg
p624
asVBrooklyn Cuvee Noir 
p625
(lp626
F10.9
aF7.0
aI1
aI0
aVhttp://brooklynbrewery.com/system/beers/44_shelf_CuveeNoire-750ml-LR_original.png?1442434954
p627
asVBLACK ROCK STOUT 
p628
(lp629
F3.6
aF7.0
aI1
aI0
aVhttp://res.cloudinary.com/ratebeer/image/upload/w_250,c_limit/beer_128477.jpg
p630
asVBrooklyn Wild Streak 
p631
(lp632
F9.4
aF7.0
aI1
aI3
aVhttp://res.cloudinary.com/ratebeer/image/upload/w_250,c_limit/beer_250350.jpg
p633
asVOdells The Meddler 
p634
(lp635
F7.8
aF7.0
aI1
aI6
aVhttp://res.cloudinary.com/ratebeer/image/upload/w_250,c_limit/beer_185267.jpg
p636
asVBrooklyn Black Chocolate 
p637
(lp638
F9.1
aF7.0
aI1
aI0
aVhttp://res.cloudinary.com/ratebeer/image/upload/w_250,c_limit/beer_531.jpg
p639
asVSiren Pompelmocello 
p640
(lp641
F3.4
aF47.0
aI1
aI3
aVhttps://www.beermerchants.com/media/catalog/product/s/i/siren_pompelmocello.png
p642
asVBRAINBLASTA 
p643
(lp644
F7.0
aF100.0
aI1
aI0
aVhttp://cdn.shopify.com/s/files/1/0286/4636/products/PorterhouseBrainblasta_grande.jpg?v=1403865154
p645
asVAnchor Saison Spring Ale 
p646
(lp647
F6.0
aF7.0
aI1
aI0
aVhttp://www.glunzbeers.com/wp-content/uploads/2014/08/ABCSteam12oz033015SH-HR_crop-496x1024.png
p648
asVSierra Nevada Bigfoot 2015 350
p649
(lp650
F10.0
aF7.0
aI1
aI0
aVhttp://res.cloudinary.com/ratebeer/image/upload/w_250,c_limit/beer_371.jpg
p651
asVAecht Schlenkerla Weizen 
p652
(lp653
F3.6
aF7.0
aI1
aI0
aVhttp://res.cloudinary.com/ratebeer/image/upload/w_250,c_limit/beer_8565.jpg
p654
asVWhiplash Rollover Session IPA
p655
(lp656
F3.6
aF47.0
aI1
aI0
aVhttp://res.cloudinary.com/ratebeer/image/upload/w_250,c_limit/beer_412929.jpg
p657
asVSka Brewing Rudie Session IPA
p658
(lp659
F1.5
aF41.0
aI1
aI0
aVhttp://res.cloudinary.com/ratebeer/image/upload/w_250,c_limit/beer_280927.jpg
p660
asVFRANZISKANER HEFE 
p661
(lp662
F2.6
aF7.0
aI1
aI0
aVhttp://res.cloudinary.com/ratebeer/image/upload/w_250,c_limit/beer_1088.jpg
p663
asVTRIPEL KARMELIET 
p664
(lp665
F7.0
aF7.0
aI1
aI0
aVhttp://res.cloudinary.com/ratebeer/image/upload/w_250,c_limit/beer_5368.jpg
p666
asVYeastie Boys Digital IPA 
p667
(lp668
F5.5
aF7.0
aI1
aI0
aVhttp://www.nectar.net/productimages/YEA003%20Yeastie%20Boys%20Digital%20IPA.jpg
p669
asVLeffe Blonde 
p670
(lp671
F5.6
aF7.0
aI1
aI0
aVhttp://res.cloudinary.com/ratebeer/image/upload/w_250,c_limit/beer_2514.jpg
p672
asVFounders Rubaeus 
p673
(lp674
F3.7
aF7.0
aI1
aI0
aVhttp://res.cloudinary.com/ratebeer/image/upload/w_250,c_limit/beer_46846.jpg
p675
asVOscar Blues Mama's Little Yell
p676
(lp677
F2.7
aF38.0
aI1
aI0
aVhttp://1.bp.blogspot.com/-IVe8S-HOOjg/VS24Xe9LbQI/AAAAAAAAiPo/XYp4d-aOvTo/s1600/mama's%2Blittle%2Byella%2Bpils%2Boskar%2Bblues.png
p678
asVLagunitas Stoopid Wit 
p679
(lp680
F4.7
aF42.0
aI1
aI0
aVhttp://res.cloudinary.com/ratebeer/image/upload/w_250,c_limit/beer_435254.jpg
p681
asVBeoir Chorca Cul Dorcha
p682
(lp683
F4.8
aF7.0
aI1
aI0
aVhttp://www.martinsofflicence.ie/cms/images/260x510_p1389718576762_west-kerry-cul-dorcha.jpg
p684
asVBirrifico Verdi Black Jack
p685
(lp686
F9.8
aF7.0
aI1
aI0
aVhttp://res.cloudinary.com/ratebeer/image/upload/w_120,c_limit/beer_124259.jpg
p687
asVStone Brewing Cali
p688
(lp689
F6.1
aF34.0
aI1
aI0
aVhttp://res.cloudinary.com/ratebeer/image/upload/w_250,c_limit/beer_87480.jpg
p690
asVLa Chouffe Houblon Triple IPA
p691
(lp692
F7.6
aF38.0
aI1
aI0
aVhttp://res.cloudinary.com/ratebeer/image/upload/w_250,c_limit/beer_56757.jpg
p693
asVO'Haras Hop Adventure 
p694
(lp695
F5.0
aF100.0
aI1
aI0
aVhttp://www.martinsofflicence.ie/cms/images/260x510_p1437398797618_o%E2%80%99hara%E2%80%99s-hop-adventure-sorachi-ace.jpg
p696
asVFounders Breakfast Stout 
p697
(lp698
F8.0
aF7.0
aI1
aI0
aVhttp://res.cloudinary.com/ratebeer/image/upload/w_250,c_limit/beer_14956.jpg
p699
asVBrewDog Jet Black Heart 
p700
(lp701
F4.1
aF7.0
aI1
aI0
aVhttp://res.cloudinary.com/ratebeer/image/upload/w_250,c_limit/beer_395517.jpg
p702
asVWESTMALLE DUBBEL 
p703
(lp704
F6.4
aF7.0
aI1
aI0
aVhttp://res.cloudinary.com/ratebeer/image/upload/w_250,c_limit/beer_2205.jpg
p705
asVDeus 
p706
(lp707
F11.5
aF100.0
aI1
aI0
aVhttp://res.cloudinary.com/ratebeer/image/upload/w_250,c_limit/beer_18912.jpg
p708
asVStormy Port Irish Porter 
p709
(lp710
F4.4
aF7.0
aI1
aI0
aVhttp://res.cloudinary.com/ratebeer/image/upload/w_250,c_limit/beer_164660.jpg
p711
asVMetalman Equinox 
p712
(lp713
F3.7
aF38.0
aI1
aI0
aVhttp://www.martinsofflicence.ie/cms/images/260x510_p1440510769881_metal-man-2.jpg
p714
asVTrouble Brewing Deception
p715
(lp716
F2.2
aF35.0
aI1
aI0
aVhttp://res.cloudinary.com/ratebeer/image/upload/w_250,c_limit/beer_247307.jpg
p717
asVMetalman Pale Ale
p718
(lp719
F2.8
aF48.0
aI1
aI0
aVhttp://www.fourcorners.ie/perch/resources/other/metalman-pale-ale.png
p720
asVRanke Hop Harvest 2015
p721
(lp722
F5.8
aF7.0
aI1
aI0
aVhttp://res.cloudinary.com/ratebeer/image/upload/w_250,c_limit/beer_189698.jpg
p723
asV3 Fonteinen Oude Kreik
p724
(lp725
F5.3
aF7.0
aI1
aI0
aVhttp://res.cloudinary.com/ratebeer/image/upload/w_250,c_limit/beer_311175.jpg
p726
asVSierra Nevada Pale Ale 
p727
(lp728
F2.1
aF42.0
aI1
aI0
aVhttp://res.cloudinary.com/ratebeer/image/upload/w_250,c_limit/beer_365.jpg
p729
asVBrewDog Sink The Bismark 
p730
(lp731
F43.1
aF29.0
aI1
aI0
aVhttp://beerstore.com.au/wp-content/uploads/2015/10/brew-dog-sink-bismark-beer-online-1369618023.jpg
p732
asVAnchor Zymaster No. 6 
p733
(lp734
F5.8
aF7.0
aI1
aI0
aVhttps://s-media-cache-ak0.pinimg.com/236x/72/4c/6a/724c6a75be9eff71bca6ba68cb854eee.jpg
p735
asVOscar Blues Pinner Passion Fruit
p736
(lp737
F2.7
aF46.0
aI1
aI0
aVhttp://www.oakbarrel.com.au/images/products/lg_3447.jpg
p738
asVSam Adams Rebel IPA 
p739
(lp740
F5.2
aF40.0
aI1
aI0
aVhttp://res.cloudinary.com/ratebeer/image/upload/w_250,c_limit/beer_222791.jpg
p741
asVPORTERHOUSE PLAIN 
p742
(lp743
F3.1
aF7.0
aI1
aI0
aVhttp://www.theporterhouse.ie/images/beers/bottle-plain.png
p744
asVLagunitas Lucky 13 
p745
(lp746
F8.6
aF7.0
aI1
aI0
aVhttps://lagunitas.com/u/img/beer-images/lucky13/Lucky-13-Lagunitas-12-oz-Bottle.png
p747
asVStone IPA Can 
p748
(lp749
F4.9
aF46.0
aI1
aI0
aVhttp://res.cloudinary.com/ratebeer/image/upload/w_250,c_limit/beer_422.jpg
p750
asVRodenbach Grand Cru 
p751
(lp752
F5.0
aF7.0
aI1
aI5
aVhttp://res.cloudinary.com/ratebeer/image/upload/w_250,c_limit/beer_1194.jpg
p753
asVBeavertown Neck Oil Can 330
p754
(lp755
F4.3
aF100.0
aI1
aI0
aVimage not found
p756
asVThornbridge Eldon 
p757
(lp758
F7.1
aF7.0
aI1
aI0
aVhttp://www.pivovarorders.co.uk/user/products/large/ELDON%20BOTTLE.png
p759
asVWhite Hag Wit 
p760
(lp761
F3.9
aF6.0
aI1
aI0
aVhttp://www.beersofeurope.co.uk/media/catalog/product/cache/1/image/9df78eab33525d08d6e5fb8d27136e95/pimages/TheWhiteHagRedDoe.jpg
p762
asVAnchor Liberty Ale 
p763
(lp764
F4.5
aF43.0
aI1
aI0
aVhttp://res.cloudinary.com/ratebeer/image/upload/w_250,c_limit/beer_47.jpg
p765
asVTrouble Brewing Sabotage IPA
p766
(lp767
F5.1
aF36.0
aI1
aI0
aVhttp://www.martinsofflicence.ie/cms/images/708x708_p1374748070442_trouble_brewing_sabotage_india_pale_ale.jpg
p768
asVOdell's Lugene Choco Milk Stou
p769
(lp770
F7.0
aF7.0
aI1
aI0
aVhttp://res.cloudinary.com/ratebeer/image/upload/w_250,c_limit/beer_194215.jpg
p771
asVBrooklyn Sorachi  Ace
p772
(lp773
F5.6
aF41.0
aI1
aI0
aVhttp://www.beersofeurope.co.uk/media/catalog/product/cache/1/image/9df78eab33525d08d6e5fb8d27136e95/pimages/BrooklynSorachiAce.jpg
p774
asVLagunitas Pale Ale 
p775
(lp776
F3.5
aF48.0
aI1
aI0
aVhttp://res.cloudinary.com/ratebeer/image/upload/w_250,c_limit/beer_86876.jpg
p777
asVSierra Nevada Torpedo 
p778
(lp779
F6.7
aF41.0
aI1
aI0
aVhttp://res.cloudinary.com/ratebeer/image/upload/w_250,c_limit/beer_59261.jpg
p780
asVAnchor Steam Beer 
p781
(lp782
F1.9
aF29.0
aI1
aI0
aVhttp://res.cloudinary.com/ratebeer/image/upload/w_250,c_limit/beer_46.jpg
p783
asVVeltins Pilsner 
p784
(lp785
F3.2
aF35.0
aI1
aI0
aVhttp://res.cloudinary.com/ratebeer/image/upload/w_250,c_limit/beer_4040.jpg
p786
asVThornbridge Jaipur 
p787
(lp788
F3.2
aF49.0
aI1
aI0
aVhttp://res.cloudinary.com/ratebeer/image/upload/w_250,c_limit/beer_48795.jpg
p789
asVWESTMALLE TRIPEL 
p790
(lp791
F8.6
aF5.0
aI1
aI0
aVhttp://res.cloudinary.com/ratebeer/image/upload/w_250,c_limit/beer_2204.jpg
p792
asVRascal's Big Hop Red Can 
p793
(lp794
F5.0
aF31.0
aI1
aI0
aVhttp://www.martinsofflicence.ie/cms/images/260x510_p1455027698855_rascals_big_hop_red.jpg
p795
asVO'Hara's Leann Follain 
p796
(lp797
F8.7
aF7.0
aI1
aI0
aVhttp://www.beersofeurope.co.uk/media/catalog/product/cache/1/image/9df78eab33525d08d6e5fb8d27136e95/pimages/OharasLeannFollain.jpg
p798
asVOud Beersel Oude Geuze 
p799
(lp800
F5.0
aF31.0
aI1
aI6
aVhttp://res.cloudinary.com/ratebeer/image/upload/w_250,c_limit/beer_10907.jpg
p801
asVBrewDog Vagabond P A 
p802
(lp803
F1.7
aF38.0
aI1
aI0
aVhttp://res.cloudinary.com/ratebeer/image/upload/w_250,c_limit/beer_304469.jpg
p804
asVLagunitas The Down Low 
p805
(lp806
F3.3
aF52.0
aI1
aI0
aVhttps://lagunitas.com/u/img/beer-images/downlow/DownLow_Web.png
p807
asVBeavertown Gamma Ray Can
p808
(lp809
F2.4
aF51.0
aI1
aI0
aVhttp://res.cloudinary.com/ratebeer/image/upload/w_250,c_limit/beer_189363.jpg
p810
asVOscar Blues G'Knight 
p811
(lp812
F6.6
aF7.0
aI1
aI0
aVhttp://extras.mnginteractive.com/live/media/site21/2011/0114/20110114__15dcaoskw~2.jpg
p813
asVO'HARAS LEANN FOLLAIN 
p814
(lp815
F5.2
aF7.0
aI1
aI0
aVhttp://res.cloudinary.com/ratebeer/image/upload/w_250,c_limit/beer_100788.jpg
p816
asV3 Fonteinen Oude Geuze 
p817
(lp818
F6.0
aF7.0
aI1
aI0
aVhttp://res.cloudinary.com/ratebeer/image/upload/w_250,c_limit/beer_11168.jpg
p819
asVSka Brewing Modus Mandarina 35
p820
(lp821
F6.2
aF43.0
aI1
aI0
aVhttp://res.cloudinary.com/ratebeer/image/upload/w_250,c_limit/beer_260630.jpg
p822
asVBrewDog Punk IPA Can 
p823
(lp824
F5.4
aF7.0
aI1
aI0
aVhttps://molloys.ie/media/catalog/product/cache/1/image/500x500/9df78eab33525d08d6e5fb8d27136e95/b/r/brewdog_punk_ipa_330ml_can_thumbnail.png
p825
asVO'HARAS IRISH PALE ALE 
p826
(lp827
F3.9
aF41.0
aI1
aI0
aVhttp://res.cloudinary.com/ratebeer/image/upload/w_250,c_limit/beer_126380.jpg
p828
asVAnderson V Brother David 
p829
(lp830
F10.4
aF7.0
aI1
aI0
aVhttp://res.cloudinary.com/ratebeer/image/upload/w_250,c_limit/beer_34081.jpg
p831
asa.